CPU Reset (CPU 0)
 V      =   0
 pc       0000000000000000
 mhartid  0000000000000000
 mstatus  0000000000000000
 hstatus  0000000200000000
 vsstatus 0000000000000000
 mip      0000000000000000
 mie      0000000000000000
 mideleg  0000000000001444
 hideleg  0000000000000000
 medeleg  0000000000000000
 hedeleg  0000000000000000
 mtvec    0000000000000000
 stvec    0000000000000000
 vstvec   0000000000000000
 mepc     0000000000000000
 sepc     0000000000000000
 vsepc    0000000000000000
 mcause   0000000000000000
 scause   0000000000000000
 vscause  0000000000000000
 mtval    0000000000000000
 stval    0000000000000000
 htval    0000000000000000
 mtval2   0000000000000000
 mscratch 0000000000000000
 sscratch 0000000000000000
 satp     0000000000000000
 x0/zero  0000000000000000 x1/ra    0000000000000000 x2/sp    0000000000000000 x3/gp    0000000000000000
 x4/tp    0000000000000000 x5/t0    0000000000000000 x6/t1    0000000000000000 x7/t2    0000000000000000
 x8/s0    0000000000000000 x9/s1    0000000000000000 x10/a0   0000000000000000 x11/a1   0000000000000000
 x12/a2   0000000000000000 x13/a3   0000000000000000 x14/a4   0000000000000000 x15/a5   0000000000000000
 x16/a6   0000000000000000 x17/a7   0000000000000000 x18/s2   0000000000000000 x19/s3   0000000000000000
 x20/s4   0000000000000000 x21/s5   0000000000000000 x22/s6   0000000000000000 x23/s7   0000000000000000
 x24/s8   0000000000000000 x25/s9   0000000000000000 x26/s10  0000000000000000 x27/s11  0000000000000000
 x28/t3   0000000000000000 x29/t4   0000000000000000 x30/t5   0000000000000000 x31/t6   0000000000000000
CPU Reset (CPU 0)
 V      =   0
 pc       0000000000001000
 mhartid  0000000000000000
 mstatus  0000000a00000000
 hstatus  0000000200000000
 vsstatus 0000000a00000000
 mip      0000000000000080
 mie      0000000000000000
 mideleg  0000000000001444
 hideleg  0000000000000000
 medeleg  0000000000000000
 hedeleg  0000000000000000
 mtvec    0000000000000000
 stvec    0000000000000000
 vstvec   0000000000000000
 mepc     0000000000000000
 sepc     0000000000000000
 vsepc    0000000000000000
 mcause   0000000000000000
 scause   0000000000000000
 vscause  0000000000000000
 mtval    0000000000000000
 stval    0000000000000000
 htval    0000000000000000
 mtval2   0000000000000000
 mscratch 0000000000000000
 sscratch 0000000000000000
 satp     0000000000000000
 x0/zero  0000000000000000 x1/ra    0000000000000000 x2/sp    0000000000000000 x3/gp    0000000000000000
 x4/tp    0000000000000000 x5/t0    0000000000000000 x6/t1    0000000000000000 x7/t2    0000000000000000
 x8/s0    0000000000000000 x9/s1    0000000000000000 x10/a0   0000000000000000 x11/a1   0000000000000000
 x12/a2   0000000000000000 x13/a3   0000000000000000 x14/a4   0000000000000000 x15/a5   0000000000000000
 x16/a6   0000000000000000 x17/a7   0000000000000000 x18/s2   0000000000000000 x19/s3   0000000000000000
 x20/s4   0000000000000000 x21/s5   0000000000000000 x22/s6   0000000000000000 x23/s7   0000000000000000
 x24/s8   0000000000000000 x25/s9   0000000000000000 x26/s10  0000000000000000 x27/s11  0000000000000000
 x28/t3   0000000000000000 x29/t4   0000000000000000 x30/t5   0000000000000000 x31/t6   0000000000000000
----------------
IN: 
Priv: 3; Virt: 0
0x00001000:  00000297          auipc                   t0,0                    # 0x1000
0x00001004:  02828613          addi                    a2,t0,40
0x00001008:  f1402573          csrrs                   a0,mhartid,zero

----------------
IN: 
Priv: 3; Virt: 0
0x0000100c:  0202b583          ld                      a1,32(t0)
0x00001010:  0182b283          ld                      t0,24(t0)
0x00001014:  00028067          jr                      t0

----------------
IN: 
Priv: 3; Virt: 0
0x80000000:  00002097          auipc                   ra,2                    # 0x80002000
0x80000004:  342080e7          jalr                    ra,ra,834

----------------
IN: 
Priv: 3; Virt: 0
0x80002342:  00006117          auipc                   sp,6                    # 0x80008342
0x80002346:  b3e10113          addi                    sp,sp,-1218
0x8000234a:  6291              lui                     t0,4
0x8000234c:  f1402373          csrrs                   t1,mhartid,zero

----------------
IN: 
Priv: 3; Virt: 0
0x80002350:  0305              addi                    t1,t1,1
0x80002352:  9116              add                     sp,sp,t0
0x80002354:  137d              addi                    t1,t1,-1
0x80002356:  fe031ee3          bnez                    t1,-4                   # 0x80002352

----------------
IN: 
Priv: 3; Virt: 0
0x8000235a:  00001317          auipc                   t1,1                    # 0x8000335a
0x8000235e:  a1830367          jalr                    t1,t1,-1512

----------------
IN: 
Priv: 3; Virt: 0
0x80002d72:  7179              addi                    sp,sp,-48
0x80002d74:  ff817113          andi                    sp,sp,-8
0x80002d78:  8082              ret                     

----------------
IN: 
Priv: 3; Virt: 0
0x80000008:  00000097          auipc                   ra,0                    # 0x80000008
0x8000000c:  074080e7          jalr                    ra,ra,116

----------------
IN: 
Priv: 3; Virt: 0
0x8000007c:  ca010113          addi                    sp,sp,-864
0x80000080:  34113c23          sd                      ra,856(sp)
0x80000084:  34813823          sd                      s0,848(sp)
0x80000088:  34913423          sd                      s1,840(sp)
0x8000008c:  35213023          sd                      s2,832(sp)
0x80000090:  33313c23          sd                      s3,824(sp)
0x80000094:  33413823          sd                      s4,816(sp)
0x80000098:  33513423          sd                      s5,808(sp)
0x8000009c:  e02a              sd                      a0,0(sp)
0x8000009e:  e42e              sd                      a1,8(sp)
0x800000a0:  00008517          auipc                   a0,8                    # 0x800080a0
0x800000a4:  b1050513          addi                    a0,a0,-1264
0x800000a8:  00357593          andi                    a1,a0,3
0x800000ac:  0035959b          slliw                   a1,a1,3
0x800000b0:  0ff00613          addi                    a2,zero,255
0x800000b4:  00b6163b          sllw                    a2,a2,a1
0x800000b8:  9971              andi                    a0,a0,-4
0x800000ba:  140526af          lr.w.aq                 a3,(a0)
0x800000be:  4701              mv                      a4,zero
0x800000c0:  8f35              xor                     a4,a4,a3
0x800000c2:  8f71              and                     a4,a4,a2
0x800000c4:  8f35              xor                     a4,a4,a3
0x800000c6:  1ae5272f          sc.w.rl                 a4,a4,(a0)
0x800000ca:  fb65              bnez                    a4,-16                  # 0x800000ba

----------------
IN: 
Priv: 3; Virt: 0
0x800000cc:  00b6d53b          srlw                    a0,a3,a1
0x800000d0:  0ff57513          andi                    a0,a0,255
0x800000d4:  00028a97          auipc                   s5,40                   # 0x800280d4
0x800000d8:  ef4a8a93          addi                    s5,s5,-268
0x800000dc:  36050f63          beqz                    a0,894                  # 0x8000045a

----------------
IN: 
Priv: 3; Virt: 0
0x800000e0:  00028517          auipc                   a0,40                   # 0x800280e0
0x800000e4:  f0050513          addi                    a0,a0,-256
0x800000e8:  00028597          auipc                   a1,40                   # 0x800280e8
0x800000ec:  d9858593          addi                    a1,a1,-616
0x800000f0:  00a5f763          bleu                    a0,a1,14                # 0x800000fe

----------------
IN: 
Priv: 3; Virt: 0
0x800000f4:  0005b023          sd                      zero,0(a1)
0x800000f8:  05a1              addi                    a1,a1,8
0x800000fa:  fea5ede3          bgtu                    a0,a1,-6                # 0x800000f4

----------------
IN: 
Priv: 3; Virt: 0
0x800000fe:  00028917          auipc                   s2,40                   # 0x800280fe
0x80000102:  d8290913          addi                    s2,s2,-638
0x80000106:  002c              addi                    a1,sp,8
0x80000108:  854a              mv                      a0,s2
0x8000010a:  00001097          auipc                   ra,1                    # 0x8000110a
0x8000010e:  73c080e7          jalr                    ra,ra,1852

----------------
IN: 
Priv: 3; Virt: 0
0x80001846:  714d              addi                    sp,sp,-336
0x80001848:  e686              sd                      ra,328(sp)
0x8000184a:  e2a2              sd                      s0,320(sp)
0x8000184c:  fe26              sd                      s1,312(sp)
0x8000184e:  fa4a              sd                      s2,304(sp)
0x80001850:  f64e              sd                      s3,296(sp)
0x80001852:  89aa              mv                      s3,a0
0x80001854:  0e050503          lb                      a0,224(a0)
0x80001858:  892e              mv                      s2,a1
0x8000185a:  0e098493          addi                    s1,s3,224
0x8000185e:  0230000f          fence                   r,rw
0x80001862:  00002097          auipc                   ra,2                    # 0x80003862
0x80001866:  532080e7          jalr                    ra,ra,1330

----------------
IN: 
Priv: 3; Virt: 0
0x80003d94:  8082              ret                     

----------------
IN: 
Priv: 3; Virt: 0
0x8000186a:  0ff57513          andi                    a0,a0,255
0x8000186e:  c50d              beqz                    a0,42                   # 0x80001898

----------------
IN: 
Priv: 3; Virt: 0
0x80001898:  ffc4f513          andi                    a0,s1,-4
0x8000189c:  0034959b          slliw                   a1,s1,3
0x800018a0:  0ff00613          addi                    a2,zero,255
0x800018a4:  00b6163b          sllw                    a2,a2,a1
0x800018a8:  4685              addi                    a3,zero,1
0x800018aa:  00b696bb          sllw                    a3,a3,a1
0x800018ae:  1682              slli                    a3,a3,32
0x800018b0:  9281              srli                    a3,a3,32
0x800018b2:  1405272f          lr.w.aq                 a4,(a0)
0x800018b6:  00c777b3          and                     a5,a4,a2
0x800018ba:  eb81              bnez                    a5,16                   # 0x800018ca

----------------
IN: 
Priv: 3; Virt: 0
0x800018bc:  00d747b3          xor                     a5,a4,a3
0x800018c0:  8ff1              and                     a5,a5,a2
0x800018c2:  8fb9              xor                     a5,a5,a4
0x800018c4:  18f527af          sc.w                    a5,a5,(a0)
0x800018c8:  f7ed              bnez                    a5,-22                  # 0x800018b2

----------------
IN: 
Priv: 3; Virt: 0
0x800018ca:  00b7553b          srlw                    a0,a4,a1
0x800018ce:  00c775b3          and                     a1,a4,a2
0x800018d2:  0005841b          sext.w                  s0,a1
0x800018d6:  00002097          auipc                   ra,2                    # 0x800038d6
0x800018da:  4be080e7          jalr                    ra,ra,1214

----------------
IN: 
Priv: 3; Virt: 0
0x800018de:  e061              bnez                    s0,192                  # 0x8000199e

----------------
IN: 
Priv: 3; Virt: 0
0x800018e0:  00093483          ld                      s1,0(s2)
0x800018e4:  05010913          addi                    s2,sp,80
0x800018e8:  08000613          addi                    a2,zero,128
0x800018ec:  854a              mv                      a0,s2
0x800018ee:  4581              mv                      a1,zero
0x800018f0:  00004097          auipc                   ra,4                    # 0x800058f0
0x800018f4:  21e080e7          jalr                    ra,ra,542

----------------
IN: 
Priv: 3; Virt: 0
0x80005b0e:  00000317          auipc                   t1,0                    # 0x80005b0e
0x80005b12:  f7030067          jalr                    zero,t1,-144

----------------
IN: 
Priv: 3; Virt: 0
0x80005a7e:  46bd              addi                    a3,zero,15
0x80005a80:  04c6fa63          bleu                    a2,a3,84                # 0x80005ad4

----------------
IN: 
Priv: 3; Virt: 0
0x80005a84:  40a006bb          negw                    a3,a0
0x80005a88:  8a9d              andi                    a3,a3,7
0x80005a8a:  00d50733          add                     a4,a0,a3
0x80005a8e:  c699              beqz                    a3,14                   # 0x80005a9c

----------------
IN: 
Priv: 3; Virt: 0
0x80005a9c:  40d608b3          sub                     a7,a2,a3
0x80005aa0:  ff88f793          andi                    a5,a7,-8
0x80005aa4:  00f706b3          add                     a3,a4,a5
0x80005aa8:  02f05263          blez                    a5,36                   # 0x80005acc

----------------
IN: 
Priv: 3; Virt: 0
0x80005aac:  03859813          slli                    a6,a1,56
0x80005ab0:  101017b7          lui                     a5,65793
0x80005ab4:  0792              slli                    a5,a5,4
0x80005ab6:  10078793          addi                    a5,a5,256
0x80005aba:  02f837b3          mulhu                   a5,a6,a5
0x80005abe:  02079613          slli                    a2,a5,32
0x80005ac2:  8fd1              or                      a5,a5,a2
0x80005ac4:  e31c              sd                      a5,0(a4)
0x80005ac6:  0721              addi                    a4,a4,8
0x80005ac8:  fed76ee3          bgtu                    a3,a4,-4                # 0x80005ac4

----------------
IN: 
Priv: 3; Virt: 0
0x80005ac4:  e31c              sd                      a5,0(a4)
0x80005ac6:  0721              addi                    a4,a4,8
0x80005ac8:  fed76ee3          bgtu                    a3,a4,-4                # 0x80005ac4

----------------
IN: 
Priv: 3; Virt: 0
0x80005acc:  0078f613          andi                    a2,a7,7
0x80005ad0:  e601              bnez                    a2,8                    # 0x80005ad8

----------------
IN: 
Priv: 3; Virt: 0
0x80005ad2:  a809              j                       18                      # 0x80005ae4

----------------
IN: 
Priv: 3; Virt: 0
0x80005ae4:  8082              ret                     

----------------
IN: 
Priv: 3; Virt: 0
0x800018f8:  e026              sd                      s1,0(sp)
0x800018fa:  e802              sd                      zero,16(sp)
0x800018fc:  ec02              sd                      zero,24(sp)
0x800018fe:  f002              sd                      zero,32(sp)
0x80001900:  f402              sd                      zero,40(sp)
0x80001902:  f802              sd                      zero,48(sp)
0x80001904:  fc02              sd                      zero,56(sp)
0x80001906:  e082              sd                      zero,64(sp)
0x80001908:  e482              sd                      zero,72(sp)
0x8000190a:  e982              sd                      zero,208(sp)
0x8000190c:  ed82              sd                      zero,216(sp)
0x8000190e:  1988              addi                    a0,sp,240
0x80001910:  85a6              mv                      a1,s1
0x80001912:  fffff097          auipc                   ra,-1                   # 0x80000912
0x80001916:  7f6080e7          jalr                    ra,ra,2038

----------------
IN: 
Priv: 3; Virt: 0
0x80001108:  0045f613          andi                    a2,a1,4
0x8000110c:  ce31              beqz                    a2,92                   # 0x80001168

----------------
IN: 
Priv: 3; Virt: 0
0x80001168:  4190              lw                      a2,0(a1)
0x8000116a:  edfe16b7          lui                     a3,-73759
0x8000116e:  dd06869b          addiw                   a3,a3,-560
0x80001172:  02d61f63          bne                     a2,a3,62                # 0x800011b0

----------------
IN: 
Priv: 3; Virt: 0
0x80001176:  0145e703          lwu                     a4,20(a1)
0x8000117a:  00875693          srli                    a3,a4,8
0x8000117e:  6641              lui                     a2,16
0x80001180:  f006061b          addiw                   a2,a2,-256
0x80001184:  8ef1              and                     a3,a3,a2
0x80001186:  01875793          srli                    a5,a4,24
0x8000118a:  8fd5              or                      a5,a5,a3
0x8000118c:  00871693          slli                    a3,a4,8
0x80001190:  00ff0837          lui                     a6,4080
0x80001194:  0106f6b3          and                     a3,a3,a6
0x80001198:  0187171b          slliw                   a4,a4,24
0x8000119c:  8ed9              or                      a3,a3,a4
0x8000119e:  00f6e733          or                      a4,a3,a5
0x800011a2:  46c5              addi                    a3,zero,17
0x800011a4:  04d77863          bleu                    a3,a4,80                # 0x800011f4

----------------
IN: 
Priv: 3; Virt: 0
0x800011f4:  0045e683          lwu                     a3,4(a1)
0x800011f8:  0086d713          srli                    a4,a3,8
0x800011fc:  8e79              and                     a2,a2,a4
0x800011fe:  0186d713          srli                    a4,a3,24
0x80001202:  8e59              or                      a2,a2,a4
0x80001204:  00869713          slli                    a4,a3,8
0x80001208:  01077733          and                     a4,a4,a6
0x8000120c:  0186969b          slliw                   a3,a3,24
0x80001210:  8ed9              or                      a3,a3,a4
0x80001212:  00c6e8b3          or                      a7,a3,a2
0x80001216:  02800693          addi                    a3,zero,40
0x8000121a:  00d8f763          bleu                    a3,a7,14                # 0x80001228

----------------
IN: 
Priv: 3; Virt: 0
0x80001228:  0105e683          lwu                     a3,16(a1)
0x8000122c:  0086d713          srli                    a4,a3,8
0x80001230:  67c1              lui                     a5,16
0x80001232:  f007879b          addiw                   a5,a5,-256
0x80001236:  8f7d              and                     a4,a4,a5
0x80001238:  0186d793          srli                    a5,a3,24
0x8000123c:  8f5d              or                      a4,a4,a5
0x8000123e:  00869793          slli                    a5,a3,8
0x80001242:  00ff0637          lui                     a2,4080
0x80001246:  8e7d              and                     a2,a2,a5
0x80001248:  0186969b          slliw                   a3,a3,24
0x8000124c:  8e55              or                      a2,a2,a3
0x8000124e:  8f51              or                      a4,a4,a2
0x80001250:  00377613          andi                    a2,a4,3
0x80001254:  ca39              beqz                    a2,86                   # 0x800012aa

----------------
IN: 
Priv: 3; Virt: 0
0x800012aa:  02873613          sltiu                   a2,a4,40
0x800012ae:  00164613          xori                    a2,a2,1
0x800012b2:  011736b3          sltu                    a3,a4,a7
0x800012b6:  8e75              and                     a2,a2,a3
0x800012b8:  ce49              beqz                    a2,154                  # 0x80001352

----------------
IN: 
Priv: 3; Virt: 0
0x800012ba:  0085e603          lwu                     a2,8(a1)
0x800012be:  00865693          srli                    a3,a2,8
0x800012c2:  67c1              lui                     a5,16
0x800012c4:  f007879b          addiw                   a5,a5,-256
0x800012c8:  8efd              and                     a3,a3,a5
0x800012ca:  01865793          srli                    a5,a2,24
0x800012ce:  00f6e833          or                      a6,a3,a5
0x800012d2:  00861793          slli                    a5,a2,8
0x800012d6:  00ff06b7          lui                     a3,4080
0x800012da:  8efd              and                     a3,a3,a5
0x800012dc:  0186161b          slliw                   a2,a2,24
0x800012e0:  8e55              or                      a2,a2,a3
0x800012e2:  010666b3          or                      a3,a2,a6
0x800012e6:  0036f613          andi                    a2,a3,3
0x800012ea:  ce2d              beqz                    a2,122                  # 0x80001364

----------------
IN: 
Priv: 3; Virt: 0
0x80001364:  00e6b633          sltu                    a2,a3,a4
0x80001368:  00164613          xori                    a2,a2,1
0x8000136c:  0116b7b3          sltu                    a5,a3,a7
0x80001370:  8e7d              and                     a2,a2,a5
0x80001372:  ce29              beqz                    a2,90                   # 0x800013cc

----------------
IN: 
Priv: 3; Virt: 0
0x80001374:  0245e603          lwu                     a2,36(a1)
0x80001378:  00865813          srli                    a6,a2,8
0x8000137c:  67c1              lui                     a5,16
0x8000137e:  f007879b          addiw                   a5,a5,-256
0x80001382:  00f87833          and                     a6,a6,a5
0x80001386:  01865793          srli                    a5,a2,24
0x8000138a:  00f86833          or                      a6,a6,a5
0x8000138e:  00861293          slli                    t0,a2,8
0x80001392:  00ff07b7          lui                     a5,4080
0x80001396:  00f2f7b3          and                     a5,t0,a5
0x8000139a:  0186161b          slliw                   a2,a2,24
0x8000139e:  8e5d              or                      a2,a2,a5
0x800013a0:  010667b3          or                      a5,a2,a6
0x800013a4:  0037f613          andi                    a2,a5,3
0x800013a8:  ca0d              beqz                    a2,50                   # 0x800013da

----------------
IN: 
Priv: 3; Virt: 0
0x800013da:  40e8883b          subw                    a6,a7,a4
0x800013de:  4701              mv                      a4,zero
0x800013e0:  0108e363          bgtu                    a6,a7,6                 # 0x800013e6

----------------
IN: 
Priv: 3; Virt: 0
0x800013e4:  8742              mv                      a4,a6
0x800013e6:  00f77763          bleu                    a5,a4,14                # 0x800013f4

----------------
IN: 
Priv: 3; Virt: 0
0x800013f4:  462d              addi                    a2,zero,11
0x800013f6:  0af67b63          bleu                    a5,a2,182               # 0x800014ac

----------------
IN: 
Priv: 3; Virt: 0
0x800013fa:  02069613          slli                    a2,a3,32
0x800013fe:  9201              srli                    a2,a2,32
0x80001400:  00c58833          add                     a6,a1,a2
0x80001404:  00082603          lw                      a2,0(a6)
0x80001408:  01000737          lui                     a4,4096
0x8000140c:  0ae61063          bne                     a2,a4,160               # 0x800014ac

----------------
IN: 
Priv: 3; Virt: 0
0x80001410:  00482603          lw                      a2,4(a6)
0x80001414:  ee41              bnez                    a2,152                  # 0x800014ac

----------------
IN: 
Priv: 3; Virt: 0
0x80001416:  02079613          slli                    a2,a5,32
0x8000141a:  9201              srli                    a2,a2,32
0x8000141c:  8209              srli                    a2,a2,2
0x8000141e:  060a              slli                    a2,a2,2
0x80001420:  9642              add                     a2,a2,a6
0x80001422:  ffc62603          lw                      a2,-4(a2)
0x80001426:  09000737          lui                     a4,36864
0x8000142a:  08e61163          bne                     a2,a4,130               # 0x800014ac

----------------
IN: 
Priv: 3; Virt: 0
0x8000142e:  00c5e603          lwu                     a2,12(a1)
0x80001432:  9ebd              addw                    a3,a3,a5
0x80001434:  00865793          srli                    a5,a2,8
0x80001438:  6741              lui                     a4,16
0x8000143a:  f007029b          addiw                   t0,a4,-256
0x8000143e:  0057f7b3          and                     a5,a5,t0
0x80001442:  01865713          srli                    a4,a2,24
0x80001446:  8f5d              or                      a4,a4,a5
0x80001448:  00861793          slli                    a5,a2,8
0x8000144c:  00ff0837          lui                     a6,4080
0x80001450:  0107f7b3          and                     a5,a5,a6
0x80001454:  0186161b          slliw                   a2,a2,24
0x80001458:  8e5d              or                      a2,a2,a5
0x8000145a:  00e667b3          or                      a5,a2,a4
0x8000145e:  00d7b633          sltu                    a2,a5,a3
0x80001462:  00164613          xori                    a2,a2,1
0x80001466:  0117b733          sltu                    a4,a5,a7
0x8000146a:  8e79              and                     a2,a2,a4
0x8000146c:  c239              beqz                    a2,70                   # 0x800014b2

----------------
IN: 
Priv: 3; Virt: 0
0x8000146e:  0205e603          lwu                     a2,32(a1)
0x80001472:  4581              mv                      a1,zero
0x80001474:  00865713          srli                    a4,a2,8
0x80001478:  00577733          and                     a4,a4,t0
0x8000147c:  01865793          srli                    a5,a2,24
0x80001480:  8fd9              or                      a5,a5,a4
0x80001482:  00861713          slli                    a4,a2,8
0x80001486:  01077733          and                     a4,a4,a6
0x8000148a:  0186161b          slliw                   a2,a2,24
0x8000148e:  8e59              or                      a2,a2,a4
0x80001490:  40d8873b          subw                    a4,a7,a3
0x80001494:  00f666b3          or                      a3,a2,a5
0x80001498:  00e8e363          bgtu                    a4,a7,6                 # 0x8000149e

----------------
IN: 
Priv: 3; Virt: 0
0x8000149c:  85ba              mv                      a1,a4
0x8000149e:  02d5f163          bleu                    a3,a1,34                # 0x800014c0

----------------
IN: 
Priv: 3; Virt: 0
0x800014c0:  45b5              addi                    a1,zero,13
0x800014c2:  c10c              sw                      a1,0(a0)
0x800014c4:  8082              ret                     

----------------
IN: 
Priv: 3; Virt: 0
0x8000191a:  554e              lw                      a0,240(sp)
0x8000191c:  45b5              addi                    a1,zero,13
0x8000191e:  0cb51e63          bne                     a0,a1,220               # 0x800019fa

----------------
IN: 
Priv: 3; Virt: 0
0x80001922:  0d010293          addi                    t0,sp,208
0x80001926:  01010893          addi                    a7,sp,16
0x8000192a:  04010813          addi                    a6,sp,64
0x8000192e:  0044e683          lwu                     a3,4(s1)
0x80001932:  1818              addi                    a4,sp,48
0x80001934:  101c              addi                    a5,sp,32
0x80001936:  09a0              addi                    s0,sp,216
0x80001938:  0086d613          srli                    a2,a3,8
0x8000193c:  65c1              lui                     a1,16
0x8000193e:  f005859b          addiw                   a1,a1,-256
0x80001942:  8df1              and                     a1,a1,a2
0x80001944:  0186d613          srli                    a2,a3,24
0x80001948:  8dd1              or                      a1,a1,a2
0x8000194a:  00869613          slli                    a2,a3,8
0x8000194e:  00ff0537          lui                     a0,4080
0x80001952:  8d71              and                     a0,a0,a2
0x80001954:  01869613          slli                    a2,a3,24
0x80001958:  8d51              or                      a0,a0,a2
0x8000195a:  8d4d              or                      a0,a0,a1
0x8000195c:  1502              slli                    a0,a0,32
0x8000195e:  9101              srli                    a0,a0,32
0x80001960:  f1a6              sd                      s1,224(sp)
0x80001962:  f5aa              sd                      a0,232(sp)
0x80001964:  9526              add                     a0,a0,s1
0x80001966:  e42a              sd                      a0,8(sp)
0x80001968:  f996              sd                      t0,240(sp)
0x8000196a:  fdca              sd                      s2,248(sp)
0x8000196c:  e222              sd                      s0,256(sp)
0x8000196e:  e646              sd                      a7,264(sp)
0x80001970:  ea3e              sd                      a5,272(sp)
0x80001972:  ee3a              sd                      a4,280(sp)
0x80001974:  f242              sd                      a6,288(sp)
0x80001976:  1188              addi                    a0,sp,224
0x80001978:  198c              addi                    a1,sp,240
0x8000197a:  00001097          auipc                   ra,1                    # 0x8000297a
0x8000197e:  034080e7          jalr                    ra,ra,52

----------------
IN: 
Priv: 3; Virt: 0
0x800029ae:  715d              addi                    sp,sp,-80
0x800029b0:  e486              sd                      ra,72(sp)
0x800029b2:  6110              ld                      a2,0(a0)
0x800029b4:  00866703          lwu                     a4,8(a2)
0x800029b8:  00875793          srli                    a5,a4,8
0x800029bc:  66c1              lui                     a3,16
0x800029be:  f006889b          addiw                   a7,a3,-256
0x800029c2:  0117f7b3          and                     a5,a5,a7
0x800029c6:  01875693          srli                    a3,a4,24
0x800029ca:  8edd              or                      a3,a3,a5
0x800029cc:  00871793          slli                    a5,a4,8
0x800029d0:  00ff0837          lui                     a6,4080
0x800029d4:  0107f7b3          and                     a5,a5,a6
0x800029d8:  0762              slli                    a4,a4,24
0x800029da:  8f5d              or                      a4,a4,a5
0x800029dc:  00853283          ld                      t0,8(a0)
0x800029e0:  00d76533          or                      a0,a4,a3
0x800029e4:  1502              slli                    a0,a0,32
0x800029e6:  9101              srli                    a0,a0,32
0x800029e8:  0ca2e763          bgtu                    a0,t0,206               # 0x80002ab6

----------------
IN: 
Priv: 3; Virt: 0
0x800029ec:  00c66683          lwu                     a3,12(a2)
0x800029f0:  0086d713          srli                    a4,a3,8
0x800029f4:  01177733          and                     a4,a4,a7
0x800029f8:  0186d793          srli                    a5,a3,24
0x800029fc:  8f5d              or                      a4,a4,a5
0x800029fe:  00869793          slli                    a5,a3,8
0x80002a02:  0107f7b3          and                     a5,a5,a6
0x80002a06:  06e2              slli                    a3,a3,24
0x80002a08:  8edd              or                      a3,a3,a5
0x80002a0a:  8ed9              or                      a3,a3,a4
0x80002a0c:  1682              slli                    a3,a3,32
0x80002a0e:  0206d713          srli                    a4,a3,32
0x80002a12:  0ae2e763          bgtu                    a4,t0,174               # 0x80002ac0

----------------
IN: 
Priv: 3; Virt: 0
0x80002a16:  02066683          lwu                     a3,32(a2)
0x80002a1a:  0086d793          srli                    a5,a3,8
0x80002a1e:  0117f8b3          and                     a7,a5,a7
0x80002a22:  0186d793          srli                    a5,a3,24
0x80002a26:  00f8e8b3          or                      a7,a7,a5
0x80002a2a:  00869793          slli                    a5,a3,8
0x80002a2e:  0107f7b3          and                     a5,a5,a6
0x80002a32:  06e2              slli                    a3,a3,24
0x80002a34:  8edd              or                      a3,a3,a5
0x80002a36:  0116e6b3          or                      a3,a3,a7
0x80002a3a:  1682              slli                    a3,a3,32
0x80002a3c:  0206d893          srli                    a7,a3,32
0x80002a40:  40e287b3          sub                     a5,t0,a4
0x80002a44:  0917e963          bgtu                    a7,a5,146               # 0x80002ad6

----------------
IN: 
Priv: 3; Virt: 0
0x80002a48:  525c              lw                      a5,36(a2)
0x80002a4a:  00e60833          add                     a6,a2,a4
0x80002a4e:  0087d71b          srliw                   a4,a5,8
0x80002a52:  66c1              lui                     a3,16
0x80002a54:  f006869b          addiw                   a3,a3,-256
0x80002a58:  8ef9              and                     a3,a3,a4
0x80002a5a:  0187d71b          srliw                   a4,a5,24
0x80002a5e:  00e6e2b3          or                      t0,a3,a4
0x80002a62:  00879713          slli                    a4,a5,8
0x80002a66:  00ff06b7          lui                     a3,4080
0x80002a6a:  8ef9              and                     a3,a3,a4
0x80002a6c:  01879713          slli                    a4,a5,24
0x80002a70:  8ed9              or                      a3,a3,a4
0x80002a72:  0056e6b3          or                      a3,a3,t0
0x80002a76:  0026d69b          srliw                   a3,a3,2
0x80002a7a:  16f5              addi                    a3,a3,-3
0x80002a7c:  9532              add                     a0,a0,a2
0x80002a7e:  0521              addi                    a0,a0,8
0x80002a80:  e02a              sd                      a0,0(sp)
0x80002a82:  00004517          auipc                   a0,4                    # 0x80006a82
0x80002a86:  1be50513          addi                    a0,a0,446
0x80002a8a:  7110              ld                      a2,32(a0)
0x80002a8c:  e436              sd                      a3,8(sp)
0x80002a8e:  e842              sd                      a6,16(sp)
0x80002a90:  ec46              sd                      a7,24(sp)
0x80002a92:  e0b2              sd                      a2,64(sp)
0x80002a94:  6d10              ld                      a2,24(a0)
0x80002a96:  6914              ld                      a3,16(a0)
0x80002a98:  6518              ld                      a4,8(a0)
0x80002a9a:  6108              ld                      a0,0(a0)
0x80002a9c:  fc32              sd                      a2,56(sp)
0x80002a9e:  f836              sd                      a3,48(sp)
0x80002aa0:  f43a              sd                      a4,40(sp)
0x80002aa2:  f02a              sd                      a0,32(sp)
0x80002aa4:  850a              mv                      a0,sp
0x80002aa6:  1010              addi                    a2,sp,32
0x80002aa8:  fffff097          auipc                   ra,-1                   # 0x80001aa8
0x80002aac:  f8c080e7          jalr                    ra,ra,-116

----------------
IN: 
Priv: 3; Virt: 0
0x80001a34:  7115              addi                    sp,sp,-224
0x80001a36:  ed86              sd                      ra,216(sp)
0x80001a38:  e9a2              sd                      s0,208(sp)
0x80001a3a:  e5a6              sd                      s1,200(sp)
0x80001a3c:  e1ca              sd                      s2,192(sp)
0x80001a3e:  fd4e              sd                      s3,184(sp)
0x80001a40:  f952              sd                      s4,176(sp)
0x80001a42:  f556              sd                      s5,168(sp)
0x80001a44:  f15a              sd                      s6,160(sp)
0x80001a46:  ed5e              sd                      s7,152(sp)
0x80001a48:  e962              sd                      s8,144(sp)
0x80001a4a:  e566              sd                      s9,136(sp)
0x80001a4c:  e16a              sd                      s10,128(sp)
0x80001a4e:  fcee              sd                      s11,120(sp)
0x80001a50:  8c2a              mv                      s8,a0
0x80001a52:  6514              ld                      a3,8(a0)
0x80001a54:  6108              ld                      a0,0(a0)
0x80001a56:  0016b713          seqz                    a4,a3
0x80001a5a:  00153793          seqz                    a5,a0
0x80001a5e:  8f5d              or                      a4,a4,a5
0x80001a60:  50071063          bnez                    a4,1280                 # 0x80001f60

----------------
IN: 
Priv: 3; Virt: 0
0x80001a64:  8cb2              mv                      s9,a2
0x80001a66:  892e              mv                      s2,a1
0x80001a68:  00450b13          addi                    s6,a0,4
0x80001a6c:  fff68a93          addi                    s5,a3,-1
0x80001a70:  4b85              addi                    s7,zero,1
0x80001a72:  4d89              addi                    s11,zero,2
0x80001a74:  4589              addi                    a1,zero,2
0x80001a76:  e82e              sd                      a1,16(sp)
0x80001a78:  4585              addi                    a1,zero,1
0x80001a7a:  ec2e              sd                      a1,24(sp)
0x80001a7c:  4585              addi                    a1,zero,1
0x80001a7e:  e42e              sd                      a1,8(sp)
0x80001a80:  a801              j                       16                      # 0x80001a90

----------------
IN: 
Priv: 3; Virt: 0
0x80001a90:  4108              lw                      a0,0(a0)
0x80001a92:  ff0005b7          lui                     a1,-4096
0x80001a96:  9d2d              addw                    a0,a0,a1
0x80001a98:  0185559b          srliw                   a1,a0,24
0x80001a9c:  0085151b          slliw                   a0,a0,8
0x80001aa0:  8d4d              or                      a0,a0,a1
0x80001aa2:  02abd163          ble                     a0,s7,34                # 0x80001ac4

----------------
IN: 
Priv: 3; Virt: 0
0x80001aa6:  05b50563          beq                     a0,s11,74               # 0x80001af0

----------------
IN: 
Priv: 3; Virt: 0
0x80001af0:  475bf863          bleu                    s5,s7,1136              # 0x80001f60

----------------
IN: 
Priv: 3; Virt: 0
0x80001af4:  000b2503          lw                      a0,0(s6)
0x80001af8:  ffea8a13          addi                    s4,s5,-2
0x80001afc:  00002097          auipc                   ra,2                    # 0x80003afc
0x80001b00:  8a2080e7          jalr                    ra,ra,-1886

----------------
IN: 
Priv: 3; Virt: 0
0x8000339e:  0085559b          srliw                   a1,a0,8
0x800033a2:  6641              lui                     a2,16
0x800033a4:  f006061b          addiw                   a2,a2,-256
0x800033a8:  8df1              and                     a1,a1,a2
0x800033aa:  0185561b          srliw                   a2,a0,24
0x800033ae:  8dd1              or                      a1,a1,a2
0x800033b0:  00851613          slli                    a2,a0,8
0x800033b4:  00ff06b7          lui                     a3,4080
0x800033b8:  8e75              and                     a2,a2,a3
0x800033ba:  0185151b          slliw                   a0,a0,24
0x800033be:  8d51              or                      a0,a0,a2
0x800033c0:  8d4d              or                      a0,a0,a1
0x800033c2:  8082              ret                     

----------------
IN: 
Priv: 3; Virt: 0
0x80001b04:  1502              slli                    a0,a0,32
0x80001b06:  02055993          srli                    s3,a0,32
0x80001b0a:  00398513          addi                    a0,s3,3
0x80001b0e:  00255493          srli                    s1,a0,2
0x80001b12:  469a6663          bgtu                    s1,s4,1132              # 0x80001f7e

----------------
IN: 
Priv: 3; Virt: 0
0x80001b16:  000cb503          ld                      a0,0(s9)
0x80001b1a:  4d81              mv                      s11,zero
0x80001b1c:  c111              beqz                    a0,4                    # 0x80001b20

----------------
IN: 
Priv: 3; Virt: 0
0x80001b1e:  8de6              mv                      s11,s9
0x80001b20:  008b0d13          addi                    s10,s6,8
0x80001b24:  12050063          beqz                    a0,288                  # 0x80001c44

----------------
IN: 
Priv: 3; Virt: 0
0x80001b28:  004b2583          lw                      a1,4(s6)
0x80001b2c:  8562              mv                      a0,s8
0x80001b2e:  00001097          auipc                   ra,1                    # 0x80002b2e
0x80001b32:  35c080e7          jalr                    ra,ra,860

----------------
IN: 
Priv: 3; Virt: 0
0x80002e8a:  0085d61b          srliw                   a2,a1,8
0x80002e8e:  66c1              lui                     a3,16
0x80002e90:  f006869b          addiw                   a3,a3,-256
0x80002e94:  8e75              and                     a2,a2,a3
0x80002e96:  0185d69b          srliw                   a3,a1,24
0x80002e9a:  8e55              or                      a2,a2,a3
0x80002e9c:  00859693          slli                    a3,a1,8
0x80002ea0:  00ff0737          lui                     a4,4080
0x80002ea4:  8ef9              and                     a3,a3,a4
0x80002ea6:  05e2              slli                    a1,a1,24
0x80002ea8:  8dd5              or                      a1,a1,a3
0x80002eaa:  6d18              ld                      a4,24(a0)
0x80002eac:  8dd1              or                      a1,a1,a2
0x80002eae:  1582              slli                    a1,a1,32
0x80002eb0:  0205d693          srli                    a3,a1,32
0x80002eb4:  04d76363          bgtu                    a3,a4,70                # 0x80002efa

----------------
IN: 
Priv: 3; Virt: 0
0x80002eb8:  00d70f63          beq                     a4,a3,30                # 0x80002ed6

----------------
IN: 
Priv: 3; Virt: 0
0x80002ebc:  6908              ld                      a0,16(a0)
0x80002ebe:  4581              mv                      a1,zero
0x80002ec0:  9536              add                     a0,a0,a3
0x80002ec2:  40d706b3          sub                     a3,a4,a3
0x80002ec6:  00b50633          add                     a2,a0,a1
0x80002eca:  00064603          lbu                     a2,0(a2)
0x80002ece:  c21d              beqz                    a2,38                   # 0x80002ef4

----------------
IN: 
Priv: 3; Virt: 0
0x80002ed0:  0585              addi                    a1,a1,1
0x80002ed2:  feb69ae3          bne                     a3,a1,-12               # 0x80002ec6

----------------
IN: 
Priv: 3; Virt: 0
0x80002ec6:  00b50633          add                     a2,a0,a1
0x80002eca:  00064603          lbu                     a2,0(a2)
0x80002ece:  c21d              beqz                    a2,38                   # 0x80002ef4

----------------
IN: 
Priv: 3; Virt: 0
0x80002ef4:  00b6ee63          bgtu                    a1,a3,28                # 0x80002f10

----------------
IN: 
Priv: 3; Virt: 0
0x80002ef8:  8082              ret                     

----------------
IN: 
Priv: 3; Virt: 0
0x80001b36:  862a              mv                      a2,a0
0x80001b38:  86ae              mv                      a3,a1
0x80001b3a:  4535              addi                    a0,zero,13
0x80001b3c:  12b54563          bgt                     a1,a0,298               # 0x80001c66

----------------
IN: 
Priv: 3; Virt: 0
0x80001c66:  4539              addi                    a0,zero,14
0x80001c68:  16a68a63          beq                     a3,a0,372               # 0x80001ddc

----------------
IN: 
Priv: 3; Virt: 0
0x80001ddc:  00064503          lbu                     a0,0(a2)
0x80001de0:  02300593          addi                    a1,zero,35
0x80001de4:  0ab51b63          bne                     a0,a1,182               # 0x80001e9a

----------------
IN: 
Priv: 3; Virt: 0
0x80001de8:  00164503          lbu                     a0,1(a2)
0x80001dec:  06100593          addi                    a1,zero,97
0x80001df0:  0ab51563          bne                     a0,a1,170               # 0x80001e9a

----------------
IN: 
Priv: 3; Virt: 0
0x80001df4:  00264503          lbu                     a0,2(a2)
0x80001df8:  06400593          addi                    a1,zero,100
0x80001dfc:  08b51f63          bne                     a0,a1,158               # 0x80001e9a

----------------
IN: 
Priv: 3; Virt: 0
0x80001e00:  00364503          lbu                     a0,3(a2)
0x80001e04:  06400593          addi                    a1,zero,100
0x80001e08:  08b51963          bne                     a0,a1,146               # 0x80001e9a

----------------
IN: 
Priv: 3; Virt: 0
0x80001e0c:  00464503          lbu                     a0,4(a2)
0x80001e10:  07200593          addi                    a1,zero,114
0x80001e14:  08b51363          bne                     a0,a1,134               # 0x80001e9a

----------------
IN: 
Priv: 3; Virt: 0
0x80001e18:  00564503          lbu                     a0,5(a2)
0x80001e1c:  06500593          addi                    a1,zero,101
0x80001e20:  06b51d63          bne                     a0,a1,122               # 0x80001e9a

----------------
IN: 
Priv: 3; Virt: 0
0x80001e24:  00664503          lbu                     a0,6(a2)
0x80001e28:  07300593          addi                    a1,zero,115
0x80001e2c:  06b51763          bne                     a0,a1,110               # 0x80001e9a

----------------
IN: 
Priv: 3; Virt: 0
0x80001e30:  00764503          lbu                     a0,7(a2)
0x80001e34:  07300593          addi                    a1,zero,115
0x80001e38:  06b51163          bne                     a0,a1,98                # 0x80001e9a

----------------
IN: 
Priv: 3; Virt: 0
0x80001e3c:  00864503          lbu                     a0,8(a2)
0x80001e40:  02d00593          addi                    a1,zero,45
0x80001e44:  04b51b63          bne                     a0,a1,86                # 0x80001e9a

----------------
IN: 
Priv: 3; Virt: 0
0x80001e48:  00964503          lbu                     a0,9(a2)
0x80001e4c:  06300593          addi                    a1,zero,99
0x80001e50:  04b51563          bne                     a0,a1,74                # 0x80001e9a

----------------
IN: 
Priv: 3; Virt: 0
0x80001e54:  00a64503          lbu                     a0,10(a2)
0x80001e58:  06500593          addi                    a1,zero,101
0x80001e5c:  02b51f63          bne                     a0,a1,62                # 0x80001e9a

----------------
IN: 
Priv: 3; Virt: 0
0x80001e60:  00b64503          lbu                     a0,11(a2)
0x80001e64:  06c00593          addi                    a1,zero,108
0x80001e68:  02b51963          bne                     a0,a1,50                # 0x80001e9a

----------------
IN: 
Priv: 3; Virt: 0
0x80001e6c:  00c64503          lbu                     a0,12(a2)
0x80001e70:  06c00593          addi                    a1,zero,108
0x80001e74:  02b51363          bne                     a0,a1,38                # 0x80001e9a

----------------
IN: 
Priv: 3; Virt: 0
0x80001e78:  00d64503          lbu                     a0,13(a2)
0x80001e7c:  07354513          xori                    a0,a0,115
0x80001e80:  0014c593          xori                    a1,s1,1
0x80001e84:  8d4d              or                      a0,a0,a1
0x80001e86:  e911              bnez                    a0,20                   # 0x80001e9a

----------------
IN: 
Priv: 3; Virt: 0
0x80001e88:  000d2503          lw                      a0,0(s10)
0x80001e8c:  00001097          auipc                   ra,1                    # 0x80002e8c
0x80001e90:  512080e7          jalr                    ra,ra,1298

----------------
IN: 
Priv: 3; Virt: 0
0x80001e94:  e82a              sd                      a0,16(sp)
0x80001e96:  4d89              addi                    s11,zero,2
0x80001e98:  a81d              j                       54                      # 0x80001ece

----------------
IN: 
Priv: 3; Virt: 0
0x80001ece:  00249513          slli                    a0,s1,2
0x80001ed2:  956a              add                     a0,a0,s10
0x80001ed4:  409a05b3          sub                     a1,s4,s1
0x80001ed8:  00ac3023          sd                      a0,0(s8)
0x80001edc:  00bc3423          sd                      a1,8(s8)
0x80001ee0:  008c3583          ld                      a1,8(s8)
0x80001ee4:  000c3503          ld                      a0,0(s8)
0x80001ee8:  b8058de3          beqz                    a1,-1126                # 0x80001a82

----------------
IN: 
Priv: 3; Virt: 0
0x80001eec:  00450b13          addi                    s6,a0,4
0x80001ef0:  fff58a93          addi                    s5,a1,-1
0x80001ef4:  b679              j                       -1138                   # 0x80001a82

----------------
IN: 
Priv: 3; Virt: 0
0x80001a82:  0015b593          seqz                    a1,a1
0x80001a86:  00153613          seqz                    a2,a0
0x80001a8a:  8dd1              or                      a1,a1,a2
0x80001a8c:  4c059a63          bnez                    a1,1236                 # 0x80001f60

----------------
IN: 
Priv: 3; Virt: 0
0x80001b40:  450d              addi                    a0,zero,3
0x80001b42:  24a68563          beq                     a3,a0,586               # 0x80001d8c

----------------
IN: 
Priv: 3; Virt: 0
0x80001b46:  452d              addi                    a0,zero,11
0x80001b48:  34a69963          bne                     a3,a0,850               # 0x80001e9a

----------------
IN: 
Priv: 3; Virt: 0
0x80001b4c:  00064503          lbu                     a0,0(a2)
0x80001b50:  02300593          addi                    a1,zero,35
0x80001b54:  34b51363          bne                     a0,a1,838               # 0x80001e9a

----------------
IN: 
Priv: 3; Virt: 0
0x80001b58:  00164503          lbu                     a0,1(a2)
0x80001b5c:  07300593          addi                    a1,zero,115
0x80001b60:  32b51d63          bne                     a0,a1,826               # 0x80001e9a

----------------
IN: 
Priv: 3; Virt: 0
0x80001b64:  00264503          lbu                     a0,2(a2)
0x80001b68:  06900593          addi                    a1,zero,105
0x80001b6c:  32b51763          bne                     a0,a1,814               # 0x80001e9a

----------------
IN: 
Priv: 3; Virt: 0
0x80001b70:  00364503          lbu                     a0,3(a2)
0x80001b74:  07a00593          addi                    a1,zero,122
0x80001b78:  32b51163          bne                     a0,a1,802               # 0x80001e9a

----------------
IN: 
Priv: 3; Virt: 0
0x80001b7c:  00464503          lbu                     a0,4(a2)
0x80001b80:  06500593          addi                    a1,zero,101
0x80001b84:  30b51b63          bne                     a0,a1,790               # 0x80001e9a

----------------
IN: 
Priv: 3; Virt: 0
0x80001b88:  00564503          lbu                     a0,5(a2)
0x80001b8c:  02d00593          addi                    a1,zero,45
0x80001b90:  30b51563          bne                     a0,a1,778               # 0x80001e9a

----------------
IN: 
Priv: 3; Virt: 0
0x80001b94:  00664503          lbu                     a0,6(a2)
0x80001b98:  06300593          addi                    a1,zero,99
0x80001b9c:  2eb51f63          bne                     a0,a1,766               # 0x80001e9a

----------------
IN: 
Priv: 3; Virt: 0
0x80001ba0:  00764503          lbu                     a0,7(a2)
0x80001ba4:  06500593          addi                    a1,zero,101
0x80001ba8:  2eb51963          bne                     a0,a1,754               # 0x80001e9a

----------------
IN: 
Priv: 3; Virt: 0
0x80001bac:  00864503          lbu                     a0,8(a2)
0x80001bb0:  06c00593          addi                    a1,zero,108
0x80001bb4:  2eb51363          bne                     a0,a1,742               # 0x80001e9a

----------------
IN: 
Priv: 3; Virt: 0
0x80001bb8:  00964503          lbu                     a0,9(a2)
0x80001bbc:  06c00593          addi                    a1,zero,108
0x80001bc0:  2cb51d63          bne                     a0,a1,730               # 0x80001e9a

----------------
IN: 
Priv: 3; Virt: 0
0x80001bc4:  00a64503          lbu                     a0,10(a2)
0x80001bc8:  07354513          xori                    a0,a0,115
0x80001bcc:  0014c593          xori                    a1,s1,1
0x80001bd0:  8d4d              or                      a0,a0,a1
0x80001bd2:  2c051463          bnez                    a0,712                  # 0x80001e9a

----------------
IN: 
Priv: 3; Virt: 0
0x80001bd6:  000d2503          lw                      a0,0(s10)
0x80001bda:  00001097          auipc                   ra,1                    # 0x80002bda
0x80001bde:  7c4080e7          jalr                    ra,ra,1988

----------------
IN: 
Priv: 3; Virt: 0
0x80001be2:  ec2a              sd                      a0,24(sp)
0x80001be4:  4d89              addi                    s11,zero,2
0x80001be6:  a4e5              j                       744                     # 0x80001ece

----------------
IN: 
Priv: 3; Virt: 0
0x80001e9a:  0880              addi                    s0,sp,80
0x80001e9c:  8522              mv                      a0,s0
0x80001e9e:  85b2              mv                      a1,a2
0x80001ea0:  8636              mv                      a2,a3
0x80001ea2:  86ea              mv                      a3,s10
0x80001ea4:  8726              mv                      a4,s1
0x80001ea6:  87ce              mv                      a5,s3
0x80001ea8:  00001097          auipc                   ra,1                    # 0x80002ea8
0x80001eac:  07e080e7          jalr                    ra,ra,126

----------------
IN: 
Priv: 3; Virt: 0
0x80002f26:  ffb60813          addi                    a6,a2,-5
0x80002f2a:  48a1              addi                    a7,zero,8
0x80002f2c:  3f08e063          bgtu                    a6,a7,992               # 0x8000330c

----------------
IN: 
Priv: 3; Virt: 0
0x80002f30:  080e              slli                    a6,a6,3
0x80002f32:  00004897          auipc                   a7,4                    # 0x80006f32
0x80002f36:  fae88893          addi                    a7,a7,-82
0x80002f3a:  9846              add                     a6,a6,a7
0x80002f3c:  00083803          ld                      a6,0(a6)
0x80002f40:  8802              jr                      a6

----------------
IN: 
Priv: 3; Virt: 0
0x80003094:  0005c803          lbu                     a6,0(a1)
0x80003098:  06300713          addi                    a4,zero,99
0x8000309c:  26e81863          bne                     a6,a4,624               # 0x8000330c

----------------
IN: 
Priv: 3; Virt: 0
0x800030a0:  0015c803          lbu                     a6,1(a1)
0x800030a4:  06f00713          addi                    a4,zero,111
0x800030a8:  26e81263          bne                     a6,a4,612               # 0x8000330c

----------------
IN: 
Priv: 3; Virt: 0
0x800030ac:  0025c803          lbu                     a6,2(a1)
0x800030b0:  06d00713          addi                    a4,zero,109
0x800030b4:  24e81c63          bne                     a6,a4,600               # 0x8000330c

----------------
IN: 
Priv: 3; Virt: 0
0x800030b8:  0035c803          lbu                     a6,3(a1)
0x800030bc:  07000713          addi                    a4,zero,112
0x800030c0:  24e81663          bne                     a6,a4,588               # 0x8000330c

----------------
IN: 
Priv: 3; Virt: 0
0x800030c4:  0045c803          lbu                     a6,4(a1)
0x800030c8:  06100713          addi                    a4,zero,97
0x800030cc:  24e81063          bne                     a6,a4,576               # 0x8000330c

----------------
IN: 
Priv: 3; Virt: 0
0x800030d0:  0055c803          lbu                     a6,5(a1)
0x800030d4:  07400713          addi                    a4,zero,116
0x800030d8:  22e81a63          bne                     a6,a4,564               # 0x8000330c

----------------
IN: 
Priv: 3; Virt: 0
0x800030dc:  0065c803          lbu                     a6,6(a1)
0x800030e0:  06900713          addi                    a4,zero,105
0x800030e4:  22e81463          bne                     a6,a4,552               # 0x8000330c

----------------
IN: 
Priv: 3; Virt: 0
0x800030e8:  0075c803          lbu                     a6,7(a1)
0x800030ec:  06200713          addi                    a4,zero,98
0x800030f0:  20e81e63          bne                     a6,a4,540               # 0x8000330c

----------------
IN: 
Priv: 3; Virt: 0
0x800030f4:  0085c803          lbu                     a6,8(a1)
0x800030f8:  06c00713          addi                    a4,zero,108
0x800030fc:  20e81863          bne                     a6,a4,528               # 0x8000330c

----------------
IN: 
Priv: 3; Virt: 0
0x80003100:  0095c803          lbu                     a6,9(a1)
0x80003104:  06500713          addi                    a4,zero,101
0x80003108:  20e81263          bne                     a6,a4,516               # 0x8000330c

----------------
IN: 
Priv: 3; Virt: 0
0x8000310c:  c799              beqz                    a5,14                   # 0x8000311a

----------------
IN: 
Priv: 3; Virt: 0
0x8000310e:  00d78633          add                     a2,a5,a3
0x80003112:  fff64603          lbu                     a2,-1(a2)
0x80003116:  20060f63          beqz                    a2,542                  # 0x80003334

----------------
IN: 
Priv: 3; Virt: 0
0x80003334:  e514              sd                      a3,8(a0)
0x80003336:  e91c              sd                      a5,16(a0)
0x80003338:  00052023          sw                      zero,0(a0)
0x8000333c:  8082              ret                     

----------------
IN: 
Priv: 3; Virt: 0
0x80001eb0:  e4ee              sd                      s11,72(sp)
0x80001eb2:  854a              mv                      a0,s2
0x80001eb4:  85ee              mv                      a1,s11
0x80001eb6:  8622              mv                      a2,s0
0x80001eb8:  00000097          auipc                   ra,0                    # 0x80001eb8
0x80001ebc:  0e4080e7          jalr                    ra,ra,228

----------------
IN: 
Priv: 3; Virt: 0
0x80001f9c:  711d              addi                    sp,sp,-96
0x80001f9e:  ec86              sd                      ra,88(sp)
0x80001fa0:  e8a2              sd                      s0,80(sp)
0x80001fa2:  e4a6              sd                      s1,72(sp)
0x80001fa4:  e0ca              sd                      s2,64(sp)
0x80001fa6:  fc4e              sd                      s3,56(sp)
0x80001fa8:  00066683          lwu                     a3,0(a2)
0x80001fac:  4721              addi                    a4,zero,8
0x80001fae:  892a              mv                      s2,a0
0x80001fb0:  0ce69863          bne                     a3,a4,208               # 0x80002080

----------------
IN: 
Priv: 3; Virt: 0
0x80002080:  4511              addi                    a0,zero,4
0x80002082:  06a68763          beq                     a3,a0,110               # 0x800020f0

----------------
IN: 
Priv: 3; Virt: 0
0x80002086:  4505              addi                    a0,zero,1
0x80002088:  4985              addi                    s3,zero,1
0x8000208a:  22a69c63          bne                     a3,a0,568               # 0x800022c2

----------------
IN: 
Priv: 3; Virt: 0
0x800022c2:  854e              mv                      a0,s3
0x800022c4:  60e6              ld                      ra,88(sp)
0x800022c6:  6446              ld                      s0,80(sp)
0x800022c8:  64a6              ld                      s1,72(sp)
0x800022ca:  6906              ld                      s2,64(sp)
0x800022cc:  79e2              ld                      s3,56(sp)
0x800022ce:  6125              addi                    sp,sp,96
0x800022d0:  8082              ret                     

----------------
IN: 
Priv: 3; Virt: 0
0x80001ec0:  0ff57513          andi                    a0,a0,255
0x80001ec4:  4d89              addi                    s11,zero,2
0x80001ec6:  01b56463          bgtu                    s11,a0,8                # 0x80001ece

----------------
IN: 
Priv: 3; Virt: 0
0x80002f42:  0005c803          lbu                     a6,0(a1)
0x80002f46:  06d00713          addi                    a4,zero,109
0x80002f4a:  3ce81163          bne                     a6,a4,962               # 0x8000330c

----------------
IN: 
Priv: 3; Virt: 0
0x80002f4e:  0015c803          lbu                     a6,1(a1)
0x80002f52:  06f00713          addi                    a4,zero,111
0x80002f56:  3ae81b63          bne                     a6,a4,950               # 0x8000330c

----------------
IN: 
Priv: 3; Virt: 0
0x80002f5a:  0025c803          lbu                     a6,2(a1)
0x80002f5e:  06400713          addi                    a4,zero,100
0x80002f62:  3ae81563          bne                     a6,a4,938               # 0x8000330c

----------------
IN: 
Priv: 3; Virt: 0
0x80002f66:  0035c803          lbu                     a6,3(a1)
0x80002f6a:  06500713          addi                    a4,zero,101
0x80002f6e:  38e81f63          bne                     a6,a4,926               # 0x8000330c

----------------
IN: 
Priv: 3; Virt: 0
0x80002f72:  0045c803          lbu                     a6,4(a1)
0x80002f76:  06c00713          addi                    a4,zero,108
0x80002f7a:  38e81963          bne                     a6,a4,914               # 0x8000330c

----------------
IN: 
Priv: 3; Virt: 0
0x80002f7e:  cb89              beqz                    a5,18                   # 0x80002f90

----------------
IN: 
Priv: 3; Virt: 0
0x80002f80:  fff78613          addi                    a2,a5,-1
0x80002f84:  00c68733          add                     a4,a3,a2
0x80002f88:  00074703          lbu                     a4,0(a4)
0x80002f8c:  38070763          beqz                    a4,910                  # 0x8000331a

----------------
IN: 
Priv: 3; Virt: 0
0x8000331a:  e514              sd                      a3,8(a0)
0x8000331c:  e910              sd                      a2,16(a0)
0x8000331e:  4705              addi                    a4,zero,1
0x80003320:  c118              sw                      a4,0(a0)
0x80003322:  8082              ret                     

----------------
IN: 
Priv: 3; Virt: 0
0x8000208e:  7188              ld                      a0,32(a1)
0x80002090:  e10d              bnez                    a0,34                   # 0x800020b2

----------------
IN: 
Priv: 3; Virt: 0
0x80002092:  6a14              ld                      a3,16(a2)
0x80002094:  00093503          ld                      a0,0(s2)
0x80002098:  660c              ld                      a1,8(a2)
0x8000209a:  08100613          addi                    a2,zero,129
0x8000209e:  e114              sd                      a3,0(a0)
0x800020a0:  22c6f963          bleu                    a2,a3,562               # 0x800022d2

----------------
IN: 
Priv: 3; Virt: 0
0x800020a4:  00893503          ld                      a0,8(s2)
0x800020a8:  8636              mv                      a2,a3
0x800020aa:  00004097          auipc                   ra,4                    # 0x800060aa
0x800020ae:  a5c080e7          jalr                    ra,ra,-1444

----------------
IN: 
Priv: 3; Virt: 0
0x80005b06:  00000317          auipc                   t1,0                    # 0x80005b06
0x80005b0a:  eca30067          jalr                    zero,t1,-310

----------------
IN: 
Priv: 3; Virt: 0
0x800059d0:  46bd              addi                    a3,zero,15
0x800059d2:  06c6fa63          bleu                    a2,a3,116               # 0x80005a46

----------------
IN: 
Priv: 3; Virt: 0
0x800059d6:  40a006bb          negw                    a3,a0
0x800059da:  0076f813          andi                    a6,a3,7
0x800059de:  010503b3          add                     t2,a0,a6
0x800059e2:  00080c63          beqz                    a6,24                   # 0x800059fa

----------------
IN: 
Priv: 3; Virt: 0
0x800059fa:  010588b3          add                     a7,a1,a6
0x800059fe:  41060833          sub                     a6,a2,a6
0x80005a02:  ff887293          andi                    t0,a6,-8
0x80005a06:  0078f593          andi                    a1,a7,7
0x80005a0a:  005386b3          add                     a3,t2,t0
0x80005a0e:  cd9d              beqz                    a1,62                   # 0x80005a4c

----------------
IN: 
Priv: 3; Virt: 0
0x80005a4c:  00505a63          blez                    t0,20                   # 0x80005a60

----------------
IN: 
Priv: 3; Virt: 0
0x80005a50:  85c6              mv                      a1,a7
0x80005a52:  6190              ld                      a2,0(a1)
0x80005a54:  00c3b023          sd                      a2,0(t2)
0x80005a58:  03a1              addi                    t2,t2,8
0x80005a5a:  05a1              addi                    a1,a1,8
0x80005a5c:  fed3ebe3          bgtu                    a3,t2,-10               # 0x80005a52

----------------
IN: 
Priv: 3; Virt: 0
0x80005a52:  6190              ld                      a2,0(a1)
0x80005a54:  00c3b023          sd                      a2,0(t2)
0x80005a58:  03a1              addi                    t2,t2,8
0x80005a5a:  05a1              addi                    a1,a1,8
0x80005a5c:  fed3ebe3          bgtu                    a3,t2,-10               # 0x80005a52

----------------
IN: 
Priv: 3; Virt: 0
0x80005a60:  005885b3          add                     a1,a7,t0
0x80005a64:  00787613          andi                    a2,a6,7
0x80005a68:  ca11              beqz                    a2,20                   # 0x80005a7c

----------------
IN: 
Priv: 3; Virt: 0
0x80005a6a:  9636              add                     a2,a2,a3
0x80005a6c:  00058703          lb                      a4,0(a1)
0x80005a70:  00e68023          sb                      a4,0(a3)
0x80005a74:  0685              addi                    a3,a3,1
0x80005a76:  0585              addi                    a1,a1,1
0x80005a78:  fec6eae3          bgtu                    a2,a3,-12               # 0x80005a6c

----------------
IN: 
Priv: 3; Virt: 0
0x80005a7c:  8082              ret                     

----------------
IN: 
Priv: 3; Virt: 0
0x800020b2:  4985              addi                    s3,zero,1
0x800020b4:  a439              j                       526                     # 0x800022c2

----------------
IN: 
Priv: 3; Virt: 0
0x80001ac4:  42051963          bnez                    a0,1074                 # 0x80001ef6

----------------
IN: 
Priv: 3; Virt: 0
0x80001ac8:  440a8e63          beqz                    s5,1116                 # 0x80001f24

----------------
IN: 
Priv: 3; Virt: 0
0x80001acc:  4401              mv                      s0,zero
0x80001ace:  4481              mv                      s1,zero
0x80001ad0:  002a9a13          slli                    s4,s5,2
0x80001ad4:  008b09b3          add                     s3,s6,s0
0x80001ad8:  854e              mv                      a0,s3
0x80001ada:  00002097          auipc                   ra,2                    # 0x80003ada
0x80001ade:  8ea080e7          jalr                    ra,ra,-1814

----------------
IN: 
Priv: 3; Virt: 0
0x800033c4:  00354503          lbu                     a0,3(a0)
0x800033c8:  00153513          seqz                    a0,a0
0x800033cc:  8082              ret                     

----------------
IN: 
Priv: 3; Virt: 0
0x80001ae2:  10051363          bnez                    a0,262                  # 0x80001be8

----------------
IN: 
Priv: 3; Virt: 0
0x80001ae6:  0411              addi                    s0,s0,4
0x80001ae8:  0485              addi                    s1,s1,1
0x80001aea:  fe8a15e3          bne                     s4,s0,-22               # 0x80001ad4

----------------
IN: 
Priv: 3; Virt: 0
0x80001ad4:  008b09b3          add                     s3,s6,s0
0x80001ad8:  854e              mv                      a0,s3
0x80001ada:  00002097          auipc                   ra,2                    # 0x80003ada
0x80001ade:  8ea080e7          jalr                    ra,ra,-1814

----------------
IN: 
Priv: 3; Virt: 0
0x80001be8:  00498513          addi                    a0,s3,4
0x80001bec:  000cb583          ld                      a1,0(s9)
0x80001bf0:  00ac3023          sd                      a0,0(s8)
0x80001bf4:  fff4c513          not                     a0,s1
0x80001bf8:  9556              add                     a0,a0,s5
0x80001bfa:  00ac3423          sd                      a0,8(s8)
0x80001bfe:  c5a9              beqz                    a1,74                   # 0x80001c48

----------------
IN: 
Priv: 3; Virt: 0
0x80001c00:  854e              mv                      a0,s3
0x80001c02:  00001097          auipc                   ra,1                    # 0x80002c02
0x80001c06:  7cc080e7          jalr                    ra,ra,1996

----------------
IN: 
Priv: 3; Virt: 0
0x800033ce:  00056503          lwu                     a0,0(a0)
0x800033d2:  0ff57593          andi                    a1,a0,255
0x800033d6:  cd89              beqz                    a1,26                   # 0x800033f0

----------------
IN: 
Priv: 3; Virt: 0
0x800033f0:  4511              addi                    a0,zero,4
0x800033f2:  8082              ret                     

----------------
IN: 
Priv: 3; Virt: 0
0x80001c0a:  40a40533          sub                     a0,s0,a0
0x80001c0e:  00450493          addi                    s1,a0,4
0x80001c12:  e4e6              sd                      s9,72(sp)
0x80001c14:  4521              addi                    a0,zero,8
0x80001c16:  c8aa              sw                      a0,80(sp)
0x80001c18:  ecda              sd                      s6,88(sp)
0x80001c1a:  f0a6              sd                      s1,96(sp)
0x80001c1c:  854a              mv                      a0,s2
0x80001c1e:  85e6              mv                      a1,s9
0x80001c20:  0890              addi                    a2,sp,80
0x80001c22:  00000097          auipc                   ra,0                    # 0x80001c22
0x80001c26:  37a080e7          jalr                    ra,ra,890

----------------
IN: 
Priv: 3; Virt: 0
0x80001fb4:  6604              ld                      s1,8(a2)
0x80001fb6:  7188              ld                      a0,32(a1)
0x80001fb8:  6a00              ld                      s0,16(a2)
0x80001fba:  cd75              beqz                    a0,252                  # 0x800020b6

----------------
IN: 
Priv: 3; Virt: 0
0x800020b6:  450d              addi                    a0,zero,3
0x800020b8:  18a40063          beq                     s0,a0,384               # 0x80002238

----------------
IN: 
Priv: 3; Virt: 0
0x800020bc:  4511              addi                    a0,zero,4
0x800020be:  18a41a63          bne                     s0,a0,404               # 0x80002252

----------------
IN: 
Priv: 3; Virt: 0
0x80002252:  4519              addi                    a0,zero,6
0x80002254:  4985              addi                    s3,zero,1
0x80002256:  06a46663          bgtu                    a0,s0,108               # 0x800022c2

----------------
IN: 
Priv: 3; Virt: 0
0x8000225a:  00004517          auipc                   a0,4                    # 0x8000625a
0x8000225e:  54e50513          addi                    a0,a0,1358
0x80002262:  4619              addi                    a2,zero,6
0x80002264:  85a6              mv                      a1,s1
0x80002266:  00003097          auipc                   ra,3                    # 0x80005266
0x8000226a:  762080e7          jalr                    ra,ra,1890

----------------
IN: 
Priv: 3; Virt: 0
0x800059c8:  00000317          auipc                   t1,0                    # 0x800059c8
0x800059cc:  11e30067          jalr                    zero,t1,286

----------------
IN: 
Priv: 3; Virt: 0
0x80005ae6:  ca19              beqz                    a2,22                   # 0x80005afc

----------------
IN: 
Priv: 3; Virt: 0
0x80005ae8:  00054683          lbu                     a3,0(a0)
0x80005aec:  0005c703          lbu                     a4,0(a1)
0x80005af0:  00e69863          bne                     a3,a4,16                # 0x80005b00

----------------
IN: 
Priv: 3; Virt: 0
0x80005b00:  40e68533          sub                     a0,a3,a4
0x80005b04:  8082              ret                     

----------------
IN: 
Priv: 3; Virt: 0
0x8000226e:  e931              bnez                    a0,84                   # 0x800022c2

----------------
IN: 
Priv: 3; Virt: 0
0x80001c2a:  0ff57593          andi                    a1,a0,255
0x80001c2e:  11b58e63          beq                     a1,s11,284              # 0x80001d4a

----------------
IN: 
Priv: 3; Virt: 0
0x80001c32:  89e6              mv                      s3,s9
0x80001c34:  855a              mv                      a0,s6
0x80001c36:  6a42              ld                      s4,16(sp)
0x80001c38:  6d62              ld                      s10,24(sp)
0x80001c3a:  6422              ld                      s0,8(sp)
0x80001c3c:  11759f63          bne                     a1,s7,286               # 0x80001d5a

----------------
IN: 
Priv: 3; Virt: 0
0x80001c40:  4501              mv                      a0,zero
0x80001c42:  a239              j                       270                     # 0x80001d50

----------------
IN: 
Priv: 3; Virt: 0
0x80001d50:  7982              ld                      s3,32(sp)
0x80001d52:  74a2              ld                      s1,40(sp)
0x80001d54:  7a42              ld                      s4,48(sp)
0x80001d56:  7d62              ld                      s10,56(sp)
0x80001d58:  6406              ld                      s0,64(sp)
0x80001d5a:  e4aa              sd                      a0,72(sp)
0x80001d5c:  e8a6              sd                      s1,80(sp)
0x80001d5e:  ccd2              sw                      s4,88(sp)
0x80001d60:  ceea              sw                      s10,92(sp)
0x80001d62:  d0a2              sw                      s0,96(sp)
0x80001d64:  f4ce              sd                      s3,104(sp)
0x80001d66:  00b0              addi                    a2,sp,72
0x80001d68:  8562              mv                      a0,s8
0x80001d6a:  85ca              mv                      a1,s2
0x80001d6c:  00000097          auipc                   ra,0                    # 0x80001d6c
0x80001d70:  cc8080e7          jalr                    ra,ra,-824

----------------
IN: 
Priv: 3; Virt: 0
0x80001b20:  008b0d13          addi                    s10,s6,8
0x80001b24:  12050063          beqz                    a0,288                  # 0x80001c44

----------------
IN: 
Priv: 3; Virt: 0
0x80001c44:  4d89              addi                    s11,zero,2
0x80001c46:  a461              j                       648                     # 0x80001ece

----------------
IN: 
Priv: 3; Virt: 0
0x80001ef6:  4585              addi                    a1,zero,1
0x80001ef8:  06b51463          bne                     a0,a1,104               # 0x80001f60

----------------
IN: 
Priv: 3; Virt: 0
0x80001efc:  016c3023          sd                      s6,0(s8)
0x80001f00:  4505              addi                    a0,zero,1
0x80001f02:  015c3423          sd                      s5,8(s8)
0x80001f06:  60ee              ld                      ra,216(sp)
0x80001f08:  644e              ld                      s0,208(sp)
0x80001f0a:  64ae              ld                      s1,200(sp)
0x80001f0c:  690e              ld                      s2,192(sp)
0x80001f0e:  79ea              ld                      s3,184(sp)
0x80001f10:  7a4a              ld                      s4,176(sp)
0x80001f12:  7aaa              ld                      s5,168(sp)
0x80001f14:  7b0a              ld                      s6,160(sp)
0x80001f16:  6bea              ld                      s7,152(sp)
0x80001f18:  6c4a              ld                      s8,144(sp)
0x80001f1a:  6caa              ld                      s9,136(sp)
0x80001f1c:  6d0a              ld                      s10,128(sp)
0x80001f1e:  7de6              ld                      s11,120(sp)
0x80001f20:  612d              addi                    sp,sp,224
0x80001f22:  8082              ret                     

----------------
IN: 
Priv: 3; Virt: 0
0x80001d74:  f04e              sd                      s3,32(sp)
0x80001d76:  f426              sd                      s1,40(sp)
0x80001d78:  f852              sd                      s4,48(sp)
0x80001d7a:  fc6a              sd                      s10,56(sp)
0x80001d7c:  e0a2              sd                      s0,64(sp)
0x80001d7e:  008c3583          ld                      a1,8(s8)
0x80001d82:  000c3503          ld                      a0,0(s8)
0x80001d86:  ce058ee3          beqz                    a1,-772                 # 0x80001a82

----------------
IN: 
Priv: 3; Virt: 0
0x80001d8a:  a28d              j                       354                     # 0x80001eec

----------------
IN: 
Priv: 3; Virt: 0
0x800033d8:  65c1              lui                     a1,16
0x800033da:  f005859b          addiw                   a1,a1,-256
0x800033de:  8de9              and                     a1,a1,a0
0x800033e0:  c991              beqz                    a1,20                   # 0x800033f4

----------------
IN: 
Priv: 3; Virt: 0
0x800033e2:  00ff05b7          lui                     a1,4080
0x800033e6:  8d6d              and                     a0,a0,a1
0x800033e8:  00153513          seqz                    a0,a0
0x800033ec:  0505              addi                    a0,a0,1
0x800033ee:  8082              ret                     

----------------
IN: 
Priv: 3; Virt: 0
0x80005af4:  0585              addi                    a1,a1,1
0x80005af6:  167d              addi                    a2,a2,-1
0x80005af8:  0505              addi                    a0,a0,1
0x80005afa:  f67d              bnez                    a2,-18                  # 0x80005ae8

----------------
IN: 
Priv: 3; Virt: 0
0x80005afc:  4501              mv                      a0,zero
0x80005afe:  8082              ret                     

----------------
IN: 
Priv: 3; Virt: 0
0x80002270:  4981              mv                      s3,zero
0x80002272:  a881              j                       80                      # 0x800022c2

----------------
IN: 
Priv: 3; Virt: 0
0x80001d5a:  e4aa              sd                      a0,72(sp)
0x80001d5c:  e8a6              sd                      s1,80(sp)
0x80001d5e:  ccd2              sw                      s4,88(sp)
0x80001d60:  ceea              sw                      s10,92(sp)
0x80001d62:  d0a2              sw                      s0,96(sp)
0x80001d64:  f4ce              sd                      s3,104(sp)
0x80001d66:  00b0              addi                    a2,sp,72
0x80001d68:  8562              mv                      a0,s8
0x80001d6a:  85ca              mv                      a1,s2
0x80001d6c:  00000097          auipc                   ra,0                    # 0x80001d6c
0x80001d70:  cc8080e7          jalr                    ra,ra,-824

----------------
IN: 
Priv: 3; Virt: 0
0x80003120:  0005c803          lbu                     a6,0(a1)
0x80003124:  07600893          addi                    a7,zero,118
0x80003128:  1f181263          bne                     a6,a7,484               # 0x8000330c

----------------
IN: 
Priv: 3; Virt: 0
0x8000330c:  e50c              sd                      a1,8(a0)
0x8000330e:  e910              sd                      a2,16(a0)
0x80003310:  ed14              sd                      a3,24(a0)
0x80003312:  f11c              sd                      a5,32(a0)
0x80003314:  471d              addi                    a4,zero,7
0x80003316:  c118              sw                      a4,0(a0)
0x80003318:  8082              ret                     

----------------
IN: 
Priv: 3; Virt: 0
0x80001d8c:  00064503          lbu                     a0,0(a2)
0x80001d90:  07200593          addi                    a1,zero,114
0x80001d94:  10b51363          bne                     a0,a1,262               # 0x80001e9a

----------------
IN: 
Priv: 3; Virt: 0
0x80001d98:  00164503          lbu                     a0,1(a2)
0x80001d9c:  06500593          addi                    a1,zero,101
0x80001da0:  0eb51d63          bne                     a0,a1,250               # 0x80001e9a

----------------
IN: 
Priv: 3; Virt: 0
0x80001da4:  00264503          lbu                     a0,2(a2)
0x80001da8:  06700593          addi                    a1,zero,103
0x80001dac:  0eb51763          bne                     a0,a1,238               # 0x80001e9a

----------------
IN: 
Priv: 3; Virt: 0
0x80001db0:  010da503          lw                      a0,16(s11)
0x80001db4:  014da583          lw                      a1,20(s11)
0x80001db8:  00a5873b          addw                    a4,a1,a0
0x80001dbc:  18070363          beqz                    a4,390                  # 0x80001f42

----------------
IN: 
Priv: 3; Virt: 0
0x80001dc0:  02e4f73b          remuw                   a4,s1,a4
0x80001dc4:  eb79              bnez                    a4,214                  # 0x80001e9a

----------------
IN: 
Priv: 3; Virt: 0
0x80001dc6:  e4ee              sd                      s11,72(sp)
0x80001dc8:  4611              addi                    a2,zero,4
0x80001dca:  c8b2              sw                      a2,80(sp)
0x80001dcc:  ecea              sd                      s10,88(sp)
0x80001dce:  f0a6              sd                      s1,96(sp)
0x80001dd0:  d4aa              sw                      a0,104(sp)
0x80001dd2:  d6ae              sw                      a1,108(sp)
0x80001dd4:  854a              mv                      a0,s2
0x80001dd6:  85ee              mv                      a1,s11
0x80001dd8:  0890              addi                    a2,sp,80
0x80001dda:  a8f9              j                       222                     # 0x80001eb8

----------------
IN: 
Priv: 3; Virt: 0
0x80001eb8:  00000097          auipc                   ra,0                    # 0x80001eb8
0x80001ebc:  0e4080e7          jalr                    ra,ra,228

----------------
IN: 
Priv: 3; Virt: 0
0x800020f0:  6e14              ld                      a3,24(a2)
0x800020f2:  6a18              ld                      a4,16(a2)
0x800020f4:  6610              ld                      a2,8(a2)
0x800020f6:  6580              ld                      s0,8(a1)
0x800020f8:  ec36              sd                      a3,24(sp)
0x800020fa:  e83a              sd                      a4,16(sp)
0x800020fc:  e432              sd                      a2,8(sp)
0x800020fe:  4985              addi                    s3,zero,1
0x80002100:  1ca46163          bgtu                    a0,s0,450               # 0x800022c2

----------------
IN: 
Priv: 3; Virt: 0
0x80002104:  6184              ld                      s1,0(a1)
0x80002106:  0014c503          lbu                     a0,1(s1)
0x8000210a:  0004c583          lbu                     a1,0(s1)
0x8000210e:  00348603          lb                      a2,3(s1)
0x80002112:  0024c683          lbu                     a3,2(s1)
0x80002116:  0522              slli                    a0,a0,8
0x80002118:  8d4d              or                      a0,a0,a1
0x8000211a:  00861593          slli                    a1,a2,8
0x8000211e:  8dd5              or                      a1,a1,a3
0x80002120:  05c2              slli                    a1,a1,16
0x80002122:  8d4d              or                      a0,a0,a1
0x80002124:  747265b7          lui                     a1,476966
0x80002128:  1755859b          addiw                   a1,a1,373
0x8000212c:  14b50463          beq                     a0,a1,328               # 0x80002274

----------------
IN: 
Priv: 3; Virt: 0
0x80002130:  4519              addi                    a0,zero,6
0x80002132:  00a46e63          bgtu                    a0,s0,28                # 0x8000214e

----------------
IN: 
Priv: 3; Virt: 0
0x80002136:  00004517          auipc                   a0,4                    # 0x80006136
0x8000213a:  5fd50513          addi                    a0,a0,1533
0x8000213e:  4619              addi                    a2,zero,6
0x80002140:  85a6              mv                      a1,s1
0x80002142:  00004097          auipc                   ra,4                    # 0x80006142
0x80002146:  886080e7          jalr                    ra,ra,-1914

----------------
IN: 
Priv: 3; Virt: 0
0x8000214a:  12050563          beqz                    a0,298                  # 0x80002274

----------------
IN: 
Priv: 3; Virt: 0
0x8000214e:  0014c503          lbu                     a0,1(s1)
0x80002152:  0004c583          lbu                     a1,0(s1)
0x80002156:  00348603          lb                      a2,3(s1)
0x8000215a:  0024c683          lbu                     a3,2(s1)
0x8000215e:  0522              slli                    a0,a0,8
0x80002160:  8d4d              or                      a0,a0,a1
0x80002162:  00861593          slli                    a1,a2,8
0x80002166:  8dd5              or                      a1,a1,a3
0x80002168:  05c2              slli                    a1,a1,16
0x8000216a:  8d4d              or                      a0,a0,a1
0x8000216c:  747365b7          lui                     a1,476982
0x80002170:  5745859b          addiw                   a1,a1,1396
0x80002174:  10b50c63          beq                     a0,a1,280               # 0x8000228c

----------------
IN: 
Priv: 3; Virt: 0
0x80002178:  4515              addi                    a0,zero,5
0x8000217a:  14a46463          bgtu                    a0,s0,328               # 0x800022c2

----------------
IN: 
Priv: 3; Virt: 0
0x8000217e:  00004517          auipc                   a0,4                    # 0x8000617e
0x80002182:  60a50513          addi                    a0,a0,1546
0x80002186:  4615              addi                    a2,zero,5
0x80002188:  85a6              mv                      a1,s1
0x8000218a:  00004097          auipc                   ra,4                    # 0x8000618a
0x8000218e:  83e080e7          jalr                    ra,ra,-1986

----------------
IN: 
Priv: 3; Virt: 0
0x80002192:  10050963          beqz                    a0,274                  # 0x800022a4

----------------
IN: 
Priv: 3; Virt: 0
0x80002196:  4519              addi                    a0,zero,6
0x80002198:  12a46563          bgtu                    a0,s0,298               # 0x800022c2

----------------
IN: 
Priv: 3; Virt: 0
0x8000219c:  00004517          auipc                   a0,4                    # 0x8000619c
0x800021a0:  60c50513          addi                    a0,a0,1548
0x800021a4:  4619              addi                    a2,zero,6
0x800021a6:  85a6              mv                      a1,s1
0x800021a8:  00004097          auipc                   ra,4                    # 0x800061a8
0x800021ac:  820080e7          jalr                    ra,ra,-2016

----------------
IN: 
Priv: 3; Virt: 0
0x800021b0:  10051963          bnez                    a0,274                  # 0x800022c2

----------------
IN: 
Priv: 3; Virt: 0
0x800021b4:  1008              addi                    a0,sp,32
0x800021b6:  002c              addi                    a1,sp,8
0x800021b8:  00001097          auipc                   ra,1                    # 0x800031b8
0x800021bc:  598080e7          jalr                    ra,ra,1432

----------------
IN: 
Priv: 3; Virt: 0
0x80003750:  6590              ld                      a2,8(a1)
0x80003752:  c279              beqz                    a2,198                  # 0x80003818

----------------
IN: 
Priv: 3; Virt: 0
0x80003754:  0105e883          lwu                     a7,16(a1)
0x80003758:  0d166363          bgtu                    a7,a2,198               # 0x8000381e

----------------
IN: 
Priv: 3; Virt: 0
0x8000375c:  0145e803          lwu                     a6,20(a1)
0x80003760:  411602b3          sub                     t0,a2,a7
0x80003764:  0d02e663          bgtu                    a6,t0,204               # 0x80003830

----------------
IN: 
Priv: 3; Virt: 0
0x80003768:  6198              ld                      a4,0(a1)
0x8000376a:  00289793          slli                    a5,a7,2
0x8000376e:  00f703b3          add                     t2,a4,a5
0x80003772:  00281e13          slli                    t3,a6,2
0x80003776:  01c38333          add                     t1,t2,t3
0x8000377a:  410282b3          sub                     t0,t0,a6
0x8000377e:  0065b023          sd                      t1,0(a1)
0x80003782:  0055b423          sd                      t0,8(a1)
0x80003786:  4301              mv                      t1,zero
0x80003788:  02088f63          beqz                    a7,62                   # 0x800037c6

----------------
IN: 
Priv: 3; Virt: 0
0x8000378c:  65c1              lui                     a1,16
0x8000378e:  f005889b          addiw                   a7,a1,-256
0x80003792:  00ff02b7          lui                     t0,4080
0x80003796:  00076583          lwu                     a1,0(a4)
0x8000379a:  0711              addi                    a4,a4,4
0x8000379c:  1302              slli                    t1,t1,32
0x8000379e:  0085d693          srli                    a3,a1,8
0x800037a2:  0116f6b3          and                     a3,a3,a7
0x800037a6:  0185d613          srli                    a2,a1,24
0x800037aa:  8e55              or                      a2,a2,a3
0x800037ac:  00859693          slli                    a3,a1,8
0x800037b0:  0056f6b3          and                     a3,a3,t0
0x800037b4:  05e2              slli                    a1,a1,24
0x800037b6:  8dd5              or                      a1,a1,a3
0x800037b8:  8dd1              or                      a1,a1,a2
0x800037ba:  1582              slli                    a1,a1,32
0x800037bc:  9181              srli                    a1,a1,32
0x800037be:  17f1              addi                    a5,a5,-4
0x800037c0:  00b36333          or                      t1,t1,a1
0x800037c4:  fbe9              bnez                    a5,-46                  # 0x80003796

----------------
IN: 
Priv: 3; Virt: 0
0x80003796:  00076583          lwu                     a1,0(a4)
0x8000379a:  0711              addi                    a4,a4,4
0x8000379c:  1302              slli                    t1,t1,32
0x8000379e:  0085d693          srli                    a3,a1,8
0x800037a2:  0116f6b3          and                     a3,a3,a7
0x800037a6:  0185d613          srli                    a2,a1,24
0x800037aa:  8e55              or                      a2,a2,a3
0x800037ac:  00859693          slli                    a3,a1,8
0x800037b0:  0056f6b3          and                     a3,a3,t0
0x800037b4:  05e2              slli                    a1,a1,24
0x800037b6:  8dd5              or                      a1,a1,a3
0x800037b8:  8dd1              or                      a1,a1,a2
0x800037ba:  1582              slli                    a1,a1,32
0x800037bc:  9181              srli                    a1,a1,32
0x800037be:  17f1              addi                    a5,a5,-4
0x800037c0:  00b36333          or                      t1,t1,a1
0x800037c4:  fbe9              bnez                    a5,-46                  # 0x80003796

----------------
IN: 
Priv: 3; Virt: 0
0x800037c6:  4781              mv                      a5,zero
0x800037c8:  04080063          beqz                    a6,64                   # 0x80003808

----------------
IN: 
Priv: 3; Virt: 0
0x800037cc:  65c1              lui                     a1,16
0x800037ce:  f005871b          addiw                   a4,a1,-256
0x800037d2:  00ff0837          lui                     a6,4080
0x800037d6:  0003e583          lwu                     a1,0(t2)
0x800037da:  0391              addi                    t2,t2,4
0x800037dc:  02079613          slli                    a2,a5,32
0x800037e0:  0085d693          srli                    a3,a1,8
0x800037e4:  8ef9              and                     a3,a3,a4
0x800037e6:  0185d793          srli                    a5,a1,24
0x800037ea:  8edd              or                      a3,a3,a5
0x800037ec:  00859793          slli                    a5,a1,8
0x800037f0:  0107f7b3          and                     a5,a5,a6
0x800037f4:  05e2              slli                    a1,a1,24
0x800037f6:  8ddd              or                      a1,a1,a5
0x800037f8:  8dd5              or                      a1,a1,a3
0x800037fa:  1582              slli                    a1,a1,32
0x800037fc:  9181              srli                    a1,a1,32
0x800037fe:  1e71              addi                    t3,t3,-4
0x80003800:  00b667b3          or                      a5,a2,a1
0x80003804:  fc0e19e3          bnez                    t3,-46                  # 0x800037d6

----------------
IN: 
Priv: 3; Virt: 0
0x800037d6:  0003e583          lwu                     a1,0(t2)
0x800037da:  0391              addi                    t2,t2,4
0x800037dc:  02079613          slli                    a2,a5,32
0x800037e0:  0085d693          srli                    a3,a1,8
0x800037e4:  8ef9              and                     a3,a3,a4
0x800037e6:  0185d793          srli                    a5,a1,24
0x800037ea:  8edd              or                      a3,a3,a5
0x800037ec:  00859793          slli                    a5,a1,8
0x800037f0:  0107f7b3          and                     a5,a5,a6
0x800037f4:  05e2              slli                    a1,a1,24
0x800037f6:  8ddd              or                      a1,a1,a5
0x800037f8:  8dd5              or                      a1,a1,a3
0x800037fa:  1582              slli                    a1,a1,32
0x800037fc:  9181              srli                    a1,a1,32
0x800037fe:  1e71              addi                    t3,t3,-4
0x80003800:  00b667b3          or                      a5,a2,a1
0x80003804:  fc0e19e3          bnez                    t3,-46                  # 0x800037d6

----------------
IN: 
Priv: 3; Virt: 0
0x80003808:  006785b3          add                     a1,a5,t1
0x8000380c:  00653423          sd                      t1,8(a0)
0x80003810:  e90c              sd                      a1,16(a0)
0x80003812:  4585              addi                    a1,zero,1
0x80003814:  e10c              sd                      a1,0(a0)
0x80003816:  8082              ret                     

----------------
IN: 
Priv: 3; Virt: 0
0x800021c0:  7502              ld                      a0,32(sp)
0x800021c2:  14050f63          beqz                    a0,350                  # 0x80002320

----------------
IN: 
Priv: 3; Virt: 0
0x800021c6:  7622              ld                      a2,40(sp)
0x800021c8:  01893503          ld                      a0,24(s2)
0x800021cc:  a0fd              j                       238                     # 0x800022ba

----------------
IN: 
Priv: 3; Virt: 0
0x800022ba:  75c2              ld                      a1,48(sp)
0x800022bc:  e110              sd                      a2,0(a0)
0x800022be:  e50c              sd                      a1,8(a0)
0x800022c0:  4989              addi                    s3,zero,2
0x800022c2:  854e              mv                      a0,s3
0x800022c4:  60e6              ld                      ra,88(sp)
0x800022c6:  6446              ld                      s0,80(sp)
0x800022c8:  64a6              ld                      s1,72(sp)
0x800022ca:  6906              ld                      s2,64(sp)
0x800022cc:  79e2              ld                      s3,56(sp)
0x800022ce:  6125              addi                    sp,sp,96
0x800022d0:  8082              ret                     

----------------
IN: 
Priv: 3; Virt: 0
0x80001eca:  000cb023          sd                      zero,0(s9)
0x80001ece:  00249513          slli                    a0,s1,2
0x80001ed2:  956a              add                     a0,a0,s10
0x80001ed4:  409a05b3          sub                     a1,s4,s1
0x80001ed8:  00ac3023          sd                      a0,0(s8)
0x80001edc:  00bc3423          sd                      a1,8(s8)
0x80001ee0:  008c3583          ld                      a1,8(s8)
0x80001ee4:  000c3503          ld                      a0,0(s8)
0x80001ee8:  b8058de3          beqz                    a1,-1126                # 0x80001a82

----------------
IN: 
Priv: 3; Virt: 0
0x800020c2:  0014c503          lbu                     a0,1(s1)
0x800020c6:  0004c583          lbu                     a1,0(s1)
0x800020ca:  00348603          lb                      a2,3(s1)
0x800020ce:  0024c683          lbu                     a3,2(s1)
0x800020d2:  0522              slli                    a0,a0,8
0x800020d4:  8d4d              or                      a0,a0,a1
0x800020d6:  00861593          slli                    a1,a2,8
0x800020da:  8dd5              or                      a1,a1,a3
0x800020dc:  05c2              slli                    a1,a1,16
0x800020de:  8d4d              or                      a0,a0,a1
0x800020e0:  737575b7          lui                     a1,472919
0x800020e4:  0635859b          addiw                   a1,a1,99
0x800020e8:  4985              addi                    s3,zero,1
0x800020ea:  1cb51c63          bne                     a0,a1,472               # 0x800022c2

----------------
IN: 
Priv: 3; Virt: 0
0x800020ee:  a249              j                       386                     # 0x80002270

----------------
IN: 
Priv: 3; Virt: 0
0x80001c6c:  4541              addi                    a0,zero,16
0x80001c6e:  22a69663          bne                     a3,a0,556               # 0x80001e9a

----------------
IN: 
Priv: 3; Virt: 0
0x800033f4:  450d              addi                    a0,zero,3
0x800033f6:  8082              ret                     

----------------
IN: 
Priv: 3; Virt: 0
0x80001fbc:  6590              ld                      a2,8(a1)
0x80001fbe:  6188              ld                      a0,0(a1)
0x80001fc0:  4591              addi                    a1,zero,4
0x80001fc2:  4985              addi                    s3,zero,1
0x80001fc4:  20b60563          beq                     a2,a1,522               # 0x800021ce

----------------
IN: 
Priv: 3; Virt: 0
0x800021ce:  00154583          lbu                     a1,1(a0)
0x800021d2:  00054603          lbu                     a2,0(a0)
0x800021d6:  00350683          lb                      a3,3(a0)
0x800021da:  00254503          lbu                     a0,2(a0)
0x800021de:  05a2              slli                    a1,a1,8
0x800021e0:  8dd1              or                      a1,a1,a2
0x800021e2:  00869613          slli                    a2,a3,8
0x800021e6:  8d51              or                      a0,a0,a2
0x800021e8:  0542              slli                    a0,a0,16
0x800021ea:  8d4d              or                      a0,a0,a1
0x800021ec:  737575b7          lui                     a1,472919
0x800021f0:  0635859b          addiw                   a1,a1,99
0x800021f4:  8d2d              xor                     a0,a0,a1
0x800021f6:  00a03533          snez                    a0,a0
0x800021fa:  00443593          sltiu                   a1,s0,4
0x800021fe:  8d4d              or                      a0,a0,a1
0x80002200:  e169              bnez                    a0,194                  # 0x800022c2

----------------
IN: 
Priv: 3; Virt: 0
0x80002202:  0014c503          lbu                     a0,1(s1)
0x80002206:  0004c583          lbu                     a1,0(s1)
0x8000220a:  00348603          lb                      a2,3(s1)
0x8000220e:  0024c683          lbu                     a3,2(s1)
0x80002212:  0522              slli                    a0,a0,8
0x80002214:  8d4d              or                      a0,a0,a1
0x80002216:  00861593          slli                    a1,a2,8
0x8000221a:  8dd5              or                      a1,a1,a3
0x8000221c:  05c2              slli                    a1,a1,16
0x8000221e:  8d4d              or                      a0,a0,a1
0x80002220:  407575b7          lui                     a1,264023
0x80002224:  0635859b          addiw                   a1,a1,99
0x80002228:  08b51d63          bne                     a0,a1,154               # 0x800022c2

----------------
IN: 
Priv: 3; Virt: 0
0x8000222c:  01093503          ld                      a0,16(s2)
0x80002230:  610c              ld                      a1,0(a0)
0x80002232:  0585              addi                    a1,a1,1
0x80002234:  e10c              sd                      a1,0(a0)
0x80002236:  a071              j                       140                     # 0x800022c2

----------------
IN: 
Priv: 3; Virt: 0
0x80001c48:  e482              sd                      zero,72(sp)
0x80001c4a:  00b0              addi                    a2,sp,72
0x80001c4c:  8562              mv                      a0,s8
0x80001c4e:  85ca              mv                      a1,s2
0x80001c50:  00000097          auipc                   ra,0                    # 0x80001c50
0x80001c54:  de4080e7          jalr                    ra,ra,-540

----------------
IN: 
Priv: 3; Virt: 0
0x80001c58:  008c3583          ld                      a1,8(s8)
0x80001c5c:  000c3503          ld                      a0,0(s8)
0x80001c60:  e20581e3          beqz                    a1,-478                 # 0x80001a82

----------------
IN: 
Priv: 3; Virt: 0
0x80001c64:  a461              j                       648                     # 0x80001eec

----------------
IN: 
Priv: 3; Virt: 0
0x80002238:  00004597          auipc                   a1,4                    # 0x80006238
0x8000223c:  5a858593          addi                    a1,a1,1448
0x80002240:  460d              addi                    a2,zero,3
0x80002242:  8526              mv                      a0,s1
0x80002244:  00003097          auipc                   ra,3                    # 0x80005244
0x80002248:  784080e7          jalr                    ra,ra,1924

----------------
IN: 
Priv: 3; Virt: 0
0x8000224c:  4985              addi                    s3,zero,1
0x8000224e:  e935              bnez                    a0,116                  # 0x800022c2

----------------
IN: 
Priv: 3; Virt: 0
0x80002250:  a005              j                       32                      # 0x80002270

----------------
IN: 
Priv: 3; Virt: 0
0x80002f96:  0005c803          lbu                     a6,0(a1)
0x80002f9a:  07300713          addi                    a4,zero,115
0x80002f9e:  36e81763          bne                     a6,a4,878               # 0x8000330c

----------------
IN: 
Priv: 3; Virt: 0
0x80001fc8:  458d              addi                    a1,zero,3
0x80001fca:  2eb61c63          bne                     a2,a1,760               # 0x800022c2

----------------
IN: 
Priv: 3; Virt: 0
0x80001fce:  00005597          auipc                   a1,5                    # 0x80006fce
0x80001fd2:  81258593          addi                    a1,a1,-2030
0x80001fd6:  460d              addi                    a2,zero,3
0x80001fd8:  00004097          auipc                   ra,4                    # 0x80005fd8
0x80001fdc:  9f0080e7          jalr                    ra,ra,-1552

----------------
IN: 
Priv: 3; Virt: 0
0x80001fe0:  00a03533          snez                    a0,a0
0x80001fe4:  00443593          sltiu                   a1,s0,4
0x80001fe8:  8d4d              or                      a0,a0,a1
0x80001fea:  2c051c63          bnez                    a0,728                  # 0x800022c2

----------------
IN: 
Priv: 3; Virt: 0
0x80001fee:  0014c503          lbu                     a0,1(s1)
0x80001ff2:  0004c583          lbu                     a1,0(s1)
0x80001ff6:  00348603          lb                      a2,3(s1)
0x80001ffa:  0024c683          lbu                     a3,2(s1)
0x80001ffe:  0522              slli                    a0,a0,8

----------------
IN: 
Priv: 3; Virt: 0
0x80002000:  8d4d              or                      a0,a0,a1
0x80002002:  00861593          slli                    a1,a2,8
0x80002006:  8dd5              or                      a1,a1,a3
0x80002008:  05c2              slli                    a1,a1,16
0x8000200a:  8d4d              or                      a0,a0,a1
0x8000200c:  747265b7          lui                     a1,476966
0x80002010:  1755859b          addiw                   a1,a1,373
0x80002014:  24b50e63          beq                     a0,a1,604               # 0x80002270

----------------
IN: 
Priv: 3; Virt: 0
0x80002018:  4519              addi                    a0,zero,6
0x8000201a:  00a46e63          bgtu                    a0,s0,28                # 0x80002036

----------------
IN: 
Priv: 3; Virt: 0
0x8000201e:  00004517          auipc                   a0,4                    # 0x8000601e
0x80002022:  71550513          addi                    a0,a0,1813
0x80002026:  4619              addi                    a2,zero,6
0x80002028:  85a6              mv                      a1,s1
0x8000202a:  00004097          auipc                   ra,4                    # 0x8000602a
0x8000202e:  99e080e7          jalr                    ra,ra,-1634

----------------
IN: 
Priv: 3; Virt: 0
0x80002032:  22050f63          beqz                    a0,574                  # 0x80002270

----------------
IN: 
Priv: 3; Virt: 0
0x80002036:  0014c503          lbu                     a0,1(s1)
0x8000203a:  0004c583          lbu                     a1,0(s1)
0x8000203e:  00348603          lb                      a2,3(s1)
0x80002042:  0024c683          lbu                     a3,2(s1)
0x80002046:  0522              slli                    a0,a0,8
0x80002048:  8d4d              or                      a0,a0,a1
0x8000204a:  00861593          slli                    a1,a2,8
0x8000204e:  8dd5              or                      a1,a1,a3
0x80002050:  05c2              slli                    a1,a1,16
0x80002052:  8d4d              or                      a0,a0,a1
0x80002054:  747365b7          lui                     a1,476982
0x80002058:  5745859b          addiw                   a1,a1,1396
0x8000205c:  20b50a63          beq                     a0,a1,532               # 0x80002270

----------------
IN: 
Priv: 3; Virt: 0
0x80002060:  4515              addi                    a0,zero,5
0x80002062:  26a46063          bgtu                    a0,s0,608               # 0x800022c2

----------------
IN: 
Priv: 3; Virt: 0
0x80002066:  00004517          auipc                   a0,4                    # 0x80006066
0x8000206a:  72250513          addi                    a0,a0,1826
0x8000206e:  4615              addi                    a2,zero,5
0x80002070:  85a6              mv                      a1,s1
0x80002072:  00004097          auipc                   ra,4                    # 0x80006072
0x80002076:  956080e7          jalr                    ra,ra,-1706

----------------
IN: 
Priv: 3; Virt: 0
0x8000207a:  24051463          bnez                    a0,584                  # 0x800022c2

----------------
IN: 
Priv: 3; Virt: 0
0x80001c72:  00064503          lbu                     a0,0(a2)
0x80001c76:  02300593          addi                    a1,zero,35
0x80001c7a:  22b51063          bne                     a0,a1,544               # 0x80001e9a

----------------
IN: 
Priv: 3; Virt: 0
0x80002274:  1008              addi                    a0,sp,32
0x80002276:  002c              addi                    a1,sp,8
0x80002278:  00001097          auipc                   ra,1                    # 0x80003278
0x8000227c:  4d8080e7          jalr                    ra,ra,1240

----------------
IN: 
Priv: 3; Virt: 0
0x80002280:  7502              ld                      a0,32(sp)
0x80002282:  c525              beqz                    a0,104                  # 0x800022ea

----------------
IN: 
Priv: 3; Virt: 0
0x80002284:  7622              ld                      a2,40(sp)
0x80002286:  02093503          ld                      a0,32(s2)
0x8000228a:  a805              j                       48                      # 0x800022ba

----------------
IN: 
Priv: 3; Virt: 0
0x80002ff8:  0005c803          lbu                     a6,0(a1)
0x80002ffc:  07000893          addi                    a7,zero,112

----------------
IN: 
Priv: 3; Virt: 0
0x80003000:  31181663          bne                     a6,a7,780               # 0x8000330c

----------------
IN: 
Priv: 3; Virt: 0
0x80003004:  0015c803          lbu                     a6,1(a1)
0x80003008:  06800893          addi                    a7,zero,104
0x8000300c:  31181063          bne                     a6,a7,768               # 0x8000330c

----------------
IN: 
Priv: 3; Virt: 0
0x80003010:  0025c803          lbu                     a6,2(a1)
0x80003014:  06100893          addi                    a7,zero,97
0x80003018:  2f181a63          bne                     a6,a7,756               # 0x8000330c

----------------
IN: 
Priv: 3; Virt: 0
0x8000301c:  0035c803          lbu                     a6,3(a1)
0x80003020:  06e00893          addi                    a7,zero,110
0x80003024:  2f181463          bne                     a6,a7,744               # 0x8000330c

----------------
IN: 
Priv: 3; Virt: 0
0x80003028:  0045c803          lbu                     a6,4(a1)
0x8000302c:  06400893          addi                    a7,zero,100
0x80003030:  2d181e63          bne                     a6,a7,732               # 0x8000330c

----------------
IN: 
Priv: 3; Virt: 0
0x80003034:  0055c803          lbu                     a6,5(a1)
0x80003038:  06c00893          addi                    a7,zero,108
0x8000303c:  2d181863          bne                     a6,a7,720               # 0x8000330c

----------------
IN: 
Priv: 3; Virt: 0
0x80003040:  0065c803          lbu                     a6,6(a1)
0x80003044:  06500893          addi                    a7,zero,101
0x80003048:  2d181263          bne                     a6,a7,708               # 0x8000330c

----------------
IN: 
Priv: 3; Virt: 0
0x8000304c:  4805              addi                    a6,zero,1
0x8000304e:  03071c63          bne                     a4,a6,56                # 0x80003086

----------------
IN: 
Priv: 3; Virt: 0
0x80003052:  0006e283          lwu                     t0,0(a3)
0x80003056:  4801              mv                      a6,zero
0x80003058:  0082d893          srli                    a7,t0,8
0x8000305c:  6741              lui                     a4,16
0x8000305e:  f007071b          addiw                   a4,a4,-256
0x80003062:  00e8f8b3          and                     a7,a7,a4
0x80003066:  0182d713          srli                    a4,t0,24
0x8000306a:  00e8e8b3          or                      a7,a7,a4
0x8000306e:  00829313          slli                    t1,t0,8
0x80003072:  00ff0737          lui                     a4,4080
0x80003076:  00e37333          and                     t1,t1,a4
0x8000307a:  0182971b          slliw                   a4,t0,24
0x8000307e:  00676733          or                      a4,a4,t1
0x80003082:  011768b3          or                      a7,a4,a7
0x80003086:  28081363          bnez                    a6,646                  # 0x8000330c

----------------
IN: 
Priv: 3; Virt: 0
0x8000308a:  01152223          sw                      a7,4(a0)
0x8000308e:  4709              addi                    a4,zero,2
0x80003090:  c118              sw                      a4,0(a0)
0x80003092:  8082              ret                     

----------------
IN: 
Priv: 3; Virt: 0
0x8000228c:  1008              addi                    a0,sp,32
0x8000228e:  002c              addi                    a1,sp,8
0x80002290:  00001097          auipc                   ra,1                    # 0x80003290
0x80002294:  4c0080e7          jalr                    ra,ra,1216

----------------
IN: 
Priv: 3; Virt: 0
0x80002298:  7502              ld                      a0,32(sp)
0x8000229a:  c12d              beqz                    a0,98                   # 0x800022fc

----------------
IN: 
Priv: 3; Virt: 0
0x8000229c:  7622              ld                      a2,40(sp)
0x8000229e:  02893503          ld                      a0,40(s2)
0x800022a2:  a821              j                       24                      # 0x800022ba

----------------
IN: 
Priv: 3; Virt: 0
0x8000207e:  aacd              j                       498                     # 0x80002270

----------------
IN: 
Priv: 3; Virt: 0
0x800022a4:  1008              addi                    a0,sp,32
0x800022a6:  002c              addi                    a1,sp,8
0x800022a8:  00001097          auipc                   ra,1                    # 0x800032a8
0x800022ac:  4a8080e7          jalr                    ra,ra,1192

----------------
IN: 
Priv: 3; Virt: 0
0x800022b0:  7502              ld                      a0,32(sp)
0x800022b2:  cd31              beqz                    a0,92                   # 0x8000230e

----------------
IN: 
Priv: 3; Virt: 0
0x800022b4:  7622              ld                      a2,40(sp)
0x800022b6:  03093503          ld                      a0,48(s2)
0x800022ba:  75c2              ld                      a1,48(sp)
0x800022bc:  e110              sd                      a2,0(a0)
0x800022be:  e50c              sd                      a1,8(a0)
0x800022c0:  4989              addi                    s3,zero,2
0x800022c2:  854e              mv                      a0,s3
0x800022c4:  60e6              ld                      ra,88(sp)
0x800022c6:  6446              ld                      s0,80(sp)
0x800022c8:  64a6              ld                      s1,72(sp)
0x800022ca:  6906              ld                      s2,64(sp)
0x800022cc:  79e2              ld                      s3,56(sp)
0x800022ce:  6125              addi                    sp,sp,96
0x800022d0:  8082              ret                     

----------------
IN: 
Priv: 3; Virt: 0
0x80002ab0:  60a6              ld                      ra,72(sp)
0x80002ab2:  6161              addi                    sp,sp,80
0x80002ab4:  8082              ret                     

----------------
IN: 
Priv: 3; Virt: 0
0x80001982:  858a              mv                      a1,sp
0x80001984:  0e000613          addi                    a2,zero,224
0x80001988:  854e              mv                      a0,s3
0x8000198a:  00004097          auipc                   ra,4                    # 0x8000598a
0x8000198e:  17c080e7          jalr                    ra,ra,380

----------------
IN: 
Priv: 3; Virt: 0
0x80001992:  0310000f          fence                   rw,w
0x80001996:  4509              addi                    a0,zero,2
0x80001998:  0ea98023          sb                      a0,224(s3)
0x8000199c:  a805              j                       48                      # 0x800019cc

----------------
IN: 
Priv: 3; Virt: 0
0x800019cc:  854e              mv                      a0,s3
0x800019ce:  60b6              ld                      ra,328(sp)
0x800019d0:  6416              ld                      s0,320(sp)
0x800019d2:  74f2              ld                      s1,312(sp)
0x800019d4:  7952              ld                      s2,304(sp)
0x800019d6:  79b2              ld                      s3,296(sp)
0x800019d8:  6171              addi                    sp,sp,336
0x800019da:  8082              ret                     

----------------
IN: 
Priv: 3; Virt: 0
0x80000112:  02093583          ld                      a1,32(s2)
0x80000116:  1928              addi                    a0,sp,184
0x80000118:  00003097          auipc                   ra,3                    # 0x80003118
0x8000011c:  c36080e7          jalr                    ra,ra,-970

----------------
IN: 
Priv: 3; Virt: 0
0x80002d4e:  00158613          addi                    a2,a1,1
0x80002d52:  00258693          addi                    a3,a1,2
0x80002d56:  00358713          addi                    a4,a1,3
0x80002d5a:  00458793          addi                    a5,a1,4
0x80002d5e:  00558813          addi                    a6,a1,5
0x80002d62:  e10c              sd                      a1,0(a0)
0x80002d64:  e510              sd                      a2,8(a0)
0x80002d66:  e914              sd                      a3,16(a0)
0x80002d68:  ed18              sd                      a4,24(a0)
0x80002d6a:  f11c              sd                      a5,32(a0)
0x80002d6c:  03053423          sd                      a6,40(a0)
0x80002d70:  8082              ret                     

----------------
IN: 
Priv: 3; Virt: 0
0x80000120:  00028517          auipc                   a0,40                   # 0x80028120
0x80000124:  e4850513          addi                    a0,a0,-440
0x80000128:  ffc57593          andi                    a1,a0,-4
0x8000012c:  0ff00613          addi                    a2,zero,255
0x80000130:  4985              addi                    s3,zero,1
0x80000132:  1405a6af          lr.w.aq                 a3,(a1)
0x80000136:  00c6f733          and                     a4,a3,a2
0x8000013a:  eb01              bnez                    a4,16                   # 0x8000014a

----------------
IN: 
Priv: 3; Virt: 0
0x8000013c:  0136c733          xor                     a4,a3,s3
0x80000140:  8f71              and                     a4,a4,a2
0x80000142:  8f35              xor                     a4,a4,a3
0x80000144:  18e5a72f          sc.w                    a4,a4,(a1)
0x80000148:  f76d              bnez                    a4,-22                  # 0x80000132

----------------
IN: 
Priv: 3; Virt: 0
0x8000014a:  0ff6f693          andi                    a3,a3,255
0x8000014e:  ca91              beqz                    a3,20                   # 0x80000162

----------------
IN: 
Priv: 3; Virt: 0
0x80000162:  758e              ld                      a1,224(sp)
0x80000164:  666e              ld                      a2,216(sp)
0x80000166:  f90c              sd                      a1,48(a0)
0x80000168:  f510              sd                      a2,40(a0)
0x8000016a:  65ce              ld                      a1,208(sp)
0x8000016c:  662e              ld                      a2,200(sp)
0x8000016e:  668e              ld                      a3,192(sp)
0x80000170:  776a              ld                      a4,184(sp)
0x80000172:  f10c              sd                      a1,32(a0)
0x80000174:  ed10              sd                      a2,24(a0)
0x80000176:  e914              sd                      a3,16(a0)
0x80000178:  e518              sd                      a4,8(a0)
0x8000017a:  0310000f          fence                   rw,w
0x8000017e:  00050023          sb                      zero,0(a0)
0x80000182:  00006517          auipc                   a0,6                    # 0x80006182
0x80000186:  b1650513          addi                    a0,a0,-1258
0x8000018a:  00006597          auipc                   a1,6                    # 0x8000618a
0x8000018e:  c1658593          addi                    a1,a1,-1002
0x80000192:  00004097          auipc                   ra,4                    # 0x80004192
0x80000196:  926080e7          jalr                    ra,ra,-1754

----------------
IN: 
Priv: 3; Virt: 0
0x80003ab8:  1141              addi                    sp,sp,-16
0x80003aba:  e406              sd                      ra,8(sp)
0x80003abc:  862e              mv                      a2,a1
0x80003abe:  85aa              mv                      a1,a0
0x80003ac0:  00024517          auipc                   a0,36                   # 0x80027ac0
0x80003ac4:  4f050513          addi                    a0,a0,1264
0x80003ac8:  00000097          auipc                   ra,0                    # 0x80003ac8
0x80003acc:  1b2080e7          jalr                    ra,ra,434

----------------
IN: 
Priv: 3; Virt: 0
0x80003c7a:  7179              addi                    sp,sp,-48
0x80003c7c:  f406              sd                      ra,40(sp)
0x80003c7e:  f022              sd                      s0,32(sp)
0x80003c80:  ec26              sd                      s1,24(sp)
0x80003c82:  e84a              sd                      s2,16(sp)
0x80003c84:  e44e              sd                      s3,8(sp)
0x80003c86:  e052              sd                      s4,0(sp)
0x80003c88:  8a2a              mv                      s4,a0
0x80003c8a:  01050503          lb                      a0,16(a0)
0x80003c8e:  8932              mv                      s2,a2
0x80003c90:  89ae              mv                      s3,a1
0x80003c92:  010a0493          addi                    s1,s4,16
0x80003c96:  0230000f          fence                   r,rw
0x80003c9a:  00000097          auipc                   ra,0                    # 0x80003c9a
0x80003c9e:  0fa080e7          jalr                    ra,ra,250

----------------
IN: 
Priv: 3; Virt: 0
0x80003ca2:  0ff57513          andi                    a0,a0,255
0x80003ca6:  c50d              beqz                    a0,42                   # 0x80003cd0

----------------
IN: 
Priv: 3; Virt: 0
0x80003cd0:  ffc4f513          andi                    a0,s1,-4
0x80003cd4:  0034959b          slliw                   a1,s1,3
0x80003cd8:  0ff00613          addi                    a2,zero,255
0x80003cdc:  00b6163b          sllw                    a2,a2,a1
0x80003ce0:  4685              addi                    a3,zero,1
0x80003ce2:  00b696bb          sllw                    a3,a3,a1
0x80003ce6:  1682              slli                    a3,a3,32
0x80003ce8:  9281              srli                    a3,a3,32
0x80003cea:  1405272f          lr.w.aq                 a4,(a0)
0x80003cee:  00c777b3          and                     a5,a4,a2
0x80003cf2:  eb81              bnez                    a5,16                   # 0x80003d02

----------------
IN: 
Priv: 3; Virt: 0
0x80003cf4:  00d747b3          xor                     a5,a4,a3
0x80003cf8:  8ff1              and                     a5,a5,a2
0x80003cfa:  8fb9              xor                     a5,a5,a4
0x80003cfc:  18f527af          sc.w                    a5,a5,(a0)
0x80003d00:  f7ed              bnez                    a5,-22                  # 0x80003cea

----------------
IN: 
Priv: 3; Virt: 0
0x80003d02:  00b7553b          srlw                    a0,a4,a1
0x80003d06:  00c775b3          and                     a1,a4,a2
0x80003d0a:  0005841b          sext.w                  s0,a1
0x80003d0e:  00000097          auipc                   ra,0                    # 0x80003d0e
0x80003d12:  086080e7          jalr                    ra,ra,134

----------------
IN: 
Priv: 3; Virt: 0
0x80003d16:  e819              bnez                    s0,22                   # 0x80003d2c

----------------
IN: 
Priv: 3; Virt: 0
0x80003d18:  013a3023          sd                      s3,0(s4)
0x80003d1c:  012a3423          sd                      s2,8(s4)
0x80003d20:  0310000f          fence                   rw,w
0x80003d24:  4509              addi                    a0,zero,2
0x80003d26:  00aa0823          sb                      a0,16(s4)
0x80003d2a:  a805              j                       48                      # 0x80003d5a

----------------
IN: 
Priv: 3; Virt: 0
0x80003d5a:  8552              mv                      a0,s4
0x80003d5c:  70a2              ld                      ra,40(sp)
0x80003d5e:  7402              ld                      s0,32(sp)
0x80003d60:  64e2              ld                      s1,24(sp)
0x80003d62:  6942              ld                      s2,16(sp)
0x80003d64:  69a2              ld                      s3,8(sp)
0x80003d66:  6a02              ld                      s4,0(sp)
0x80003d68:  6145              addi                    sp,sp,48
0x80003d6a:  8082              ret                     

----------------
IN: 
Priv: 3; Virt: 0
0x80003ad0:  00004517          auipc                   a0,4                    # 0x80007ad0
0x80003ad4:  a3050513          addi                    a0,a0,-1488
0x80003ad8:  00004597          auipc                   a1,4                    # 0x80007ad8
0x80003adc:  a4058593          addi                    a1,a1,-1472
0x80003ae0:  00000097          auipc                   ra,0                    # 0x80003ae0
0x80003ae4:  61c080e7          jalr                    ra,ra,1564

----------------
IN: 
Priv: 3; Virt: 0
0x800040fc:  00024697          auipc                   a3,36                   # 0x800280fc
0x80004100:  ed468693          addi                    a3,a3,-300
0x80004104:  4605              addi                    a2,zero,1
0x80004106:  1606b72f          lr.d.aq.rl              a4,(a3)
0x8000410a:  e701              bnez                    a4,8                    # 0x80004112

----------------
IN: 
Priv: 3; Virt: 0
0x8000410c:  1ec6b7af          sc.d.aq.rl              a5,a2,(a3)
0x80004110:  fbfd              bnez                    a5,-10                  # 0x80004106

----------------
IN: 
Priv: 3; Virt: 0
0x80004112:  cb05              beqz                    a4,48                   # 0x80004142

----------------
IN: 
Priv: 3; Virt: 0
0x80004142:  00004717          auipc                   a4,4                    # 0x80008142
0x80004146:  a9670713          addi                    a4,a4,-1386
0x8000414a:  e308              sd                      a0,0(a4)
0x8000414c:  00004517          auipc                   a0,4                    # 0x8000814c
0x80004150:  a9450513          addi                    a0,a0,-1388
0x80004154:  e10c              sd                      a1,0(a0)
0x80004156:  0310000f          fence                   rw,w
0x8000415a:  4509              addi                    a0,zero,2
0x8000415c:  e288              sd                      a0,0(a3)
0x8000415e:  4501              mv                      a0,zero
0x80004160:  8082              ret                     

----------------
IN: 
Priv: 3; Virt: 0
0x80003ae8:  e501              bnez                    a0,8                    # 0x80003af0

----------------
IN: 
Priv: 3; Virt: 0
0x80003aea:  60a2              ld                      ra,8(sp)
0x80003aec:  0141              addi                    sp,sp,16
0x80003aee:  8082              ret                     

----------------
IN: 
Priv: 3; Virt: 0
0x8000019a:  4501              mv                      a0,zero
0x8000019c:  00004097          auipc                   ra,4                    # 0x8000419c
0x800001a0:  97c080e7          jalr                    ra,ra,-1668

----------------
IN: 
Priv: 3; Virt: 0
0x80003b18:  1141              addi                    sp,sp,-16
0x80003b1a:  e406              sd                      ra,8(sp)
0x80003b1c:  c901              beqz                    a0,16                   # 0x80003b2c

----------------
IN: 
Priv: 3; Virt: 0
0x80003b2c:  4515              addi                    a0,zero,5
0x80003b2e:  00024597          auipc                   a1,36                   # 0x80027b2e
0x80003b32:  4aa58593          addi                    a1,a1,1194
0x80003b36:  e188              sd                      a0,0(a1)
0x80003b38:  60a2              ld                      ra,8(sp)
0x80003b3a:  0141              addi                    sp,sp,16
0x80003b3c:  8082              ret                     

----------------
IN: 
Priv: 3; Virt: 0
0x800001a4:  04093503          ld                      a0,64(s2)
0x800001a8:  0310000f          fence                   rw,w
0x800001ac:  00aab023          sd                      a0,0(s5)
0x800001b0:  03093503          ld                      a0,48(s2)
0x800001b4:  fd2a              sd                      a0,184(sp)
0x800001b6:  00028497          auipc                   s1,40                   # 0x800281b6
0x800001ba:  dea48493          addi                    s1,s1,-534
0x800001be:  192c              addi                    a1,sp,184
0x800001c0:  0b810a13          addi                    s4,sp,184
0x800001c4:  8526              mv                      a0,s1
0x800001c6:  00001097          auipc                   ra,1                    # 0x800011c6
0x800001ca:  576080e7          jalr                    ra,ra,1398

----------------
IN: 
Priv: 3; Virt: 0
0x8000173c:  7179              addi                    sp,sp,-48
0x8000173e:  f406              sd                      ra,40(sp)
0x80001740:  f022              sd                      s0,32(sp)
0x80001742:  ec26              sd                      s1,24(sp)
0x80001744:  e84a              sd                      s2,16(sp)
0x80001746:  e44e              sd                      s3,8(sp)
0x80001748:  89aa              mv                      s3,a0
0x8000174a:  00850503          lb                      a0,8(a0)
0x8000174e:  892e              mv                      s2,a1
0x80001750:  00898493          addi                    s1,s3,8
0x80001754:  0230000f          fence                   r,rw
0x80001758:  00002097          auipc                   ra,2                    # 0x80003758
0x8000175c:  63c080e7          jalr                    ra,ra,1596

----------------
IN: 
Priv: 3; Virt: 0
0x80001760:  0ff57513          andi                    a0,a0,255
0x80001764:  c50d              beqz                    a0,42                   # 0x8000178e

----------------
IN: 
Priv: 3; Virt: 0
0x8000178e:  ffc4f513          andi                    a0,s1,-4
0x80001792:  0034959b          slliw                   a1,s1,3
0x80001796:  0ff00613          addi                    a2,zero,255
0x8000179a:  00b6163b          sllw                    a2,a2,a1
0x8000179e:  4685              addi                    a3,zero,1
0x800017a0:  00b696bb          sllw                    a3,a3,a1
0x800017a4:  1682              slli                    a3,a3,32
0x800017a6:  9281              srli                    a3,a3,32
0x800017a8:  1405272f          lr.w.aq                 a4,(a0)
0x800017ac:  00c777b3          and                     a5,a4,a2
0x800017b0:  eb81              bnez                    a5,16                   # 0x800017c0

----------------
IN: 
Priv: 3; Virt: 0
0x800017b2:  00d747b3          xor                     a5,a4,a3
0x800017b6:  8ff1              and                     a5,a5,a2
0x800017b8:  8fb9              xor                     a5,a5,a4
0x800017ba:  18f527af          sc.w                    a5,a5,(a0)
0x800017be:  f7ed              bnez                    a5,-22                  # 0x800017a8

----------------
IN: 
Priv: 3; Virt: 0
0x800017c0:  00b7553b          srlw                    a0,a4,a1
0x800017c4:  00c775b3          and                     a1,a4,a2
0x800017c8:  0005841b          sext.w                  s0,a1
0x800017cc:  00002097          auipc                   ra,2                    # 0x800037cc
0x800017d0:  5c8080e7          jalr                    ra,ra,1480

----------------
IN: 
Priv: 3; Virt: 0
0x800017d4:  e819              bnez                    s0,22                   # 0x800017ea

----------------
IN: 
Priv: 3; Virt: 0
0x800017d6:  00093503          ld                      a0,0(s2)
0x800017da:  00a9b023          sd                      a0,0(s3)
0x800017de:  0310000f          fence                   rw,w
0x800017e2:  4509              addi                    a0,zero,2
0x800017e4:  00a98423          sb                      a0,8(s3)
0x800017e8:  a805              j                       48                      # 0x80001818

----------------
IN: 
Priv: 3; Virt: 0
0x80001818:  854e              mv                      a0,s3
0x8000181a:  70a2              ld                      ra,40(sp)
0x8000181c:  7402              ld                      s0,32(sp)
0x8000181e:  64e2              ld                      s1,24(sp)
0x80001820:  6942              ld                      s2,16(sp)
0x80001822:  69a2              ld                      s3,8(sp)
0x80001824:  6145              addi                    sp,sp,48
0x80001826:  8082              ret                     

----------------
IN: 
Priv: 3; Virt: 0
0x800001ce:  00000517          auipc                   a0,0                    # 0x800001ce
0x800001d2:  e3250513          addi                    a0,a0,-462
0x800001d6:  f92a              sd                      a0,176(sp)
0x800001d8:  00006517          auipc                   a0,6                    # 0x800061d8
0x800001dc:  e3850513          addi                    a0,a0,-456
0x800001e0:  e82a              sd                      a0,16(sp)
0x800001e2:  00001517          auipc                   a0,1                    # 0x800011e2
0x800001e6:  2e450513          addi                    a0,a0,740
0x800001ea:  ec2a              sd                      a0,24(sp)
0x800001ec:  00006597          auipc                   a1,6                    # 0x800061ec
0x800001f0:  fe458593          addi                    a1,a1,-28
0x800001f4:  f02e              sd                      a1,32(sp)
0x800001f6:  f42a              sd                      a0,40(sp)
0x800001f8:  00006597          auipc                   a1,6                    # 0x800061f8
0x800001fc:  ff858593          addi                    a1,a1,-8
0x80000200:  f82e              sd                      a1,48(sp)
0x80000202:  fc2a              sd                      a0,56(sp)
0x80000204:  05090513          addi                    a0,s2,80
0x80000208:  e0aa              sd                      a0,64(sp)
0x8000020a:  00003517          auipc                   a0,3                    # 0x8000320a
0x8000020e:  8e450513          addi                    a0,a0,-1820
0x80000212:  e4aa              sd                      a0,72(sp)
0x80000214:  0d890513          addi                    a0,s2,216
0x80000218:  e8aa              sd                      a0,80(sp)
0x8000021a:  00005517          auipc                   a0,5                    # 0x8000521a
0x8000021e:  73250513          addi                    a0,a0,1842
0x80000222:  ecaa              sd                      a0,88(sp)
0x80000224:  01090593          addi                    a1,s2,16
0x80000228:  f0ae              sd                      a1,96(sp)
0x8000022a:  00002597          auipc                   a1,2                    # 0x8000222a
0x8000022e:  1ee58593          addi                    a1,a1,494
0x80000232:  f4ae              sd                      a1,104(sp)
0x80000234:  860a              mv                      a2,sp
0x80000236:  f8b2              sd                      a2,112(sp)
0x80000238:  fcaa              sd                      a0,120(sp)
0x8000023a:  e14a              sd                      s2,128(sp)
0x8000023c:  e52e              sd                      a1,136(sp)
0x8000023e:  1908              addi                    a0,sp,176
0x80000240:  e92a              sd                      a0,144(sp)
0x80000242:  00005517          auipc                   a0,5                    # 0x80005242
0x80000246:  47850513          addi                    a0,a0,1144
0x8000024a:  ed2a              sd                      a0,152(sp)
0x8000024c:  00006597          auipc                   a1,6                    # 0x8000624c
0x80000250:  fc458593          addi                    a1,a1,-60
0x80000254:  f12e              sd                      a1,160(sp)
0x80000256:  f52a              sd                      a0,168(sp)
0x80000258:  4509              addi                    a0,zero,2
0x8000025a:  fd2a              sd                      a0,184(sp)
0x8000025c:  e5aa              sd                      a0,200(sp)
0x8000025e:  02599593          slli                    a1,s3,37
0x80000262:  edae              sd                      a1,216(sp)
0x80000264:  460d              addi                    a2,zero,3
0x80000266:  0ec10023          sb                      a2,224(sp)
0x8000026a:  f582              sd                      zero,232(sp)
0x8000026c:  f9aa              sd                      a0,240(sp)
0x8000026e:  e22a              sd                      a0,256(sp)
0x80000270:  ea2e              sd                      a1,272(sp)
0x80000272:  10c10c23          sb                      a2,280(sp)
0x80000276:  f24e              sd                      s3,288(sp)
0x80000278:  f62a              sd                      a0,296(sp)
0x8000027a:  fe2a              sd                      a0,312(sp)
0x8000027c:  e6ae              sd                      a1,328(sp)
0x8000027e:  14c10823          sb                      a2,336(sp)
0x80000282:  eeaa              sd                      a0,344(sp)
0x80000284:  f2aa              sd                      a0,352(sp)
0x80000286:  faaa              sd                      a0,368(sp)
0x80000288:  e32e              sd                      a1,384(sp)
0x8000028a:  18c10423          sb                      a2,392(sp)
0x8000028e:  eb32              sd                      a2,400(sp)
0x80000290:  ef2a              sd                      a0,408(sp)
0x80000292:  f72a              sd                      a0,424(sp)
0x80000294:  ff2e              sd                      a1,440(sp)
0x80000296:  1cc10023          sb                      a2,448(sp)
0x8000029a:  4691              addi                    a3,zero,4
0x8000029c:  e7b6              sd                      a3,456(sp)
0x8000029e:  ebaa              sd                      a0,464(sp)
0x800002a0:  f3aa              sd                      a0,480(sp)
0x800002a2:  01458693          addi                    a3,a1,20
0x800002a6:  fbb6              sd                      a3,496(sp)
0x800002a8:  1ec10c23          sb                      a2,504(sp)
0x800002ac:  4715              addi                    a4,zero,5
0x800002ae:  20e13023          sd                      a4,512(sp)
0x800002b2:  20a13423          sd                      a0,520(sp)
0x800002b6:  20a13c23          sd                      a0,536(sp)
0x800002ba:  22b13423          sd                      a1,552(sp)
0x800002be:  22c10823          sb                      a2,560(sp)
0x800002c2:  4719              addi                    a4,zero,6
0x800002c4:  22e13c23          sd                      a4,568(sp)
0x800002c8:  24a13023          sd                      a0,576(sp)
0x800002cc:  24a13823          sd                      a0,592(sp)
0x800002d0:  26d13023          sd                      a3,608(sp)
0x800002d4:  26c10423          sb                      a2,616(sp)
0x800002d8:  469d              addi                    a3,zero,7
0x800002da:  26d13823          sd                      a3,624(sp)
0x800002de:  26a13c23          sd                      a0,632(sp)
0x800002e2:  28a13423          sd                      a0,648(sp)
0x800002e6:  0591              addi                    a1,a1,4
0x800002e8:  28b13c23          sd                      a1,664(sp)
0x800002ec:  2ac10023          sb                      a2,672(sp)
0x800002f0:  46a1              addi                    a3,zero,8
0x800002f2:  2ad13423          sd                      a3,680(sp)
0x800002f6:  2aa13823          sd                      a0,688(sp)
0x800002fa:  2ca13023          sd                      a0,704(sp)
0x800002fe:  2cb13823          sd                      a1,720(sp)
0x80000302:  2cc10c23          sb                      a2,728(sp)
0x80000306:  4525              addi                    a0,zero,9
0x80000308:  2ea13023          sd                      a0,736(sp)
0x8000030c:  1608              addi                    a0,sp,800
0x8000030e:  2ea13423          sd                      a0,744(sp)
0x80000312:  2f413823          sd                      s4,752(sp)
0x80000316:  4529              addi                    a0,zero,10
0x80000318:  2ea13c23          sd                      a0,760(sp)
0x8000031c:  00006597          auipc                   a1,6                    # 0x8000631c
0x80000320:  c3c58593          addi                    a1,a1,-964
0x80000324:  30b13023          sd                      a1,768(sp)
0x80000328:  45ad              addi                    a1,zero,11
0x8000032a:  30b13423          sd                      a1,776(sp)
0x8000032e:  080c              addi                    a1,sp,16
0x80000330:  30b13823          sd                      a1,784(sp)
0x80000334:  30a13c23          sd                      a0,792(sp)
0x80000338:  00006597          auipc                   a1,6                    # 0x80006338
0x8000033c:  10858593          addi                    a1,a1,264
0x80000340:  15a8              addi                    a0,sp,744
0x80000342:  1d90              addi                    a2,sp,752
0x80000344:  00004097          auipc                   ra,4                    # 0x80004344
0x80000348:  65c080e7          jalr                    ra,ra,1628

----------------
IN: 
Priv: 3; Virt: 0
0x800049a0:  7119              addi                    sp,sp,-128
0x800049a2:  fc86              sd                      ra,120(sp)
0x800049a4:  f8a2              sd                      s0,112(sp)
0x800049a6:  f4a6              sd                      s1,104(sp)
0x800049a8:  f0ca              sd                      s2,96(sp)
0x800049aa:  ecce              sd                      s3,88(sp)
0x800049ac:  e8d2              sd                      s4,80(sp)
0x800049ae:  e4d6              sd                      s5,72(sp)
0x800049b0:  e0da              sd                      s6,64(sp)
0x800049b2:  89b2              mv                      s3,a2
0x800049b4:  4605              addi                    a2,zero,1
0x800049b6:  1616              slli                    a2,a2,37
0x800049b8:  f832              sd                      a2,48(sp)
0x800049ba:  460d              addi                    a2,zero,3
0x800049bc:  02c10c23          sb                      a2,56(sp)
0x800049c0:  0009b603          ld                      a2,0(s3)
0x800049c4:  e802              sd                      zero,16(sp)
0x800049c6:  f002              sd                      zero,32(sp)
0x800049c8:  e02a              sd                      a0,0(sp)
0x800049ca:  e42e              sd                      a1,8(sp)
0x800049cc:  c669              beqz                    a2,202                  # 0x80004a96

----------------
IN: 
Priv: 3; Virt: 0
0x800049ce:  0089b503          ld                      a0,8(s3)
0x800049d2:  10050e63          beqz                    a0,284                  # 0x80004aee

----------------
IN: 
Priv: 3; Virt: 0
0x800049d6:  0109b583          ld                      a1,16(s3)
0x800049da:  fff50693          addi                    a3,a0,-1
0x800049de:  068e              slli                    a3,a3,3
0x800049e0:  828d              srli                    a3,a3,3
0x800049e2:  00168913          addi                    s2,a3,1
0x800049e6:  00858493          addi                    s1,a1,8
0x800049ea:  03800593          addi                    a1,zero,56
0x800049ee:  02b50a33          mul                     s4,a0,a1
0x800049f2:  01860413          addi                    s0,a2,24
0x800049f6:  4a85              addi                    s5,zero,1
0x800049f8:  fffffb17          auipc                   s6,-1                   # 0x800039f8
0x800049fc:  7acb0b13          addi                    s6,s6,1964
0x80004a00:  6090              ld                      a2,0(s1)
0x80004a02:  ca09              beqz                    a2,18                   # 0x80004a14

----------------
IN: 
Priv: 3; Virt: 0
0x80004a04:  66a2              ld                      a3,8(sp)
0x80004a06:  6502              ld                      a0,0(sp)
0x80004a08:  ff84b583          ld                      a1,-8(s1)
0x80004a0c:  6e94              ld                      a3,24(a3)
0x80004a0e:  9682              jalr                    ra,a3,0

----------------
IN: 
Priv: 3; Virt: 0
0x8000161e:  1101              addi                    sp,sp,-32
0x80001620:  ec06              sd                      ra,24(sp)
0x80001622:  e822              sd                      s0,16(sp)
0x80001624:  e426              sd                      s1,8(sp)
0x80001626:  e04a              sd                      s2,0(sp)
0x80001628:  00027417          auipc                   s0,39                   # 0x80028628
0x8000162c:  98840413          addi                    s0,s0,-1656
0x80001630:  01040503          lb                      a0,16(s0)
0x80001634:  8932              mv                      s2,a2
0x80001636:  84ae              mv                      s1,a1
0x80001638:  0230000f          fence                   r,rw
0x8000163c:  00002097          auipc                   ra,2                    # 0x8000363c
0x80001640:  758080e7          jalr                    ra,ra,1880

----------------
IN: 
Priv: 3; Virt: 0
0x80001644:  0ff57513          andi                    a0,a0,255
0x80001648:  4589              addi                    a1,zero,2
0x8000164a:  00b51f63          bne                     a0,a1,30                # 0x80001668

----------------
IN: 
Priv: 3; Virt: 0
0x8000164e:  640c              ld                      a1,8(s0)
0x80001650:  6008              ld                      a0,0(s0)
0x80001652:  7194              ld                      a3,32(a1)
0x80001654:  85a6              mv                      a1,s1
0x80001656:  864a              mv                      a2,s2
0x80001658:  9682              jalr                    ra,a3,0

----------------
IN: 
Priv: 3; Virt: 0
0x8000106a:  7179              addi                    sp,sp,-48
0x8000106c:  f406              sd                      ra,40(sp)
0x8000106e:  f022              sd                      s0,32(sp)
0x80001070:  ec26              sd                      s1,24(sp)
0x80001072:  e84a              sd                      s2,16(sp)
0x80001074:  e44e              sd                      s3,8(sp)
0x80001076:  00027497          auipc                   s1,39                   # 0x80028076
0x8000107a:  ef248493          addi                    s1,s1,-270
0x8000107e:  ffc4f513          andi                    a0,s1,-4
0x80001082:  0ff00693          addi                    a3,zero,255
0x80001086:  4705              addi                    a4,zero,1
0x80001088:  140527af          lr.w.aq                 a5,(a0)
0x8000108c:  00d7f433          and                     s0,a5,a3
0x80001090:  e801              bnez                    s0,16                   # 0x800010a0

----------------
IN: 
Priv: 3; Virt: 0
0x80001092:  00e7c433          xor                     s0,a5,a4
0x80001096:  8c75              and                     s0,s0,a3
0x80001098:  8c3d              xor                     s0,s0,a5
0x8000109a:  1885242f          sc.w                    s0,s0,(a0)
0x8000109e:  f46d              bnez                    s0,-22                  # 0x80001088

----------------
IN: 
Priv: 3; Virt: 0
0x800010a0:  0ff7f793          andi                    a5,a5,255
0x800010a4:  8432              mv                      s0,a2
0x800010a6:  e781              bnez                    a5,8                    # 0x800010ae

----------------
IN: 
Priv: 3; Virt: 0
0x800010a8:  a02d              j                       42                      # 0x800010d2

----------------
IN: 
Priv: 3; Virt: 0
0x800010d2:  c005              beqz                    s0,32                   # 0x800010f2

----------------
IN: 
Priv: 3; Virt: 0
0x800010d4:  00848913          addi                    s2,s1,8
0x800010d8:  00058603          lb                      a2,0(a1)
0x800010dc:  00158993          addi                    s3,a1,1
0x800010e0:  854a              mv                      a0,s2
0x800010e2:  85b2              mv                      a1,a2
0x800010e4:  00002097          auipc                   ra,2                    # 0x800030e4
0x800010e8:  bc8080e7          jalr                    ra,ra,-1080

----------------
IN: 
Priv: 3; Virt: 0
0x80002cac:  6110              ld                      a2,0(a0)
0x80002cae:  0ff5f693          andi                    a3,a1,255
0x80002cb2:  07f00713          addi                    a4,zero,127
0x80002cb6:  02e68863          beq                     a3,a4,48                # 0x80002ce6

----------------
IN: 
Priv: 3; Virt: 0
0x80002cba:  4721              addi                    a4,zero,8
0x80002cbc:  02e68563          beq                     a3,a4,42                # 0x80002ce6

----------------
IN: 
Priv: 3; Virt: 0
0x80002cc0:  7514              ld                      a3,40(a0)
0x80002cc2:  0006c683          lbu                     a3,0(a3)
0x80002cc6:  0206f693          andi                    a3,a3,32
0x80002cca:  ea89              bnez                    a3,18                   # 0x80002cdc

----------------
IN: 
Priv: 3; Virt: 0
0x80002cc2:  0006c683          lbu                     a3,0(a3)

----------------
IN: 
Priv: 3; Virt: 0
0x80002cc6:  0206f693          andi                    a3,a3,32
0x80002cca:  ea89              bnez                    a3,18                   # 0x80002cdc

----------------
IN: 
Priv: 3; Virt: 0
0x80002cdc:  00b60023          sb                      a1,0(a2)
0x80002ce0:  8082              ret                     

----------------
IN: 
Priv: 3; Virt: 0
0x80002cdc:  00b60023          sb                      a1,0(a2)

----------------
IN: 
Priv: 3; Virt: 0
0x80002ce0:  8082              ret                     

----------------
IN: 
Priv: 3; Virt: 0
0x800010ec:  147d              addi                    s0,s0,-1
0x800010ee:  85ce              mv                      a1,s3
0x800010f0:  f465              bnez                    s0,-24                  # 0x800010d8

----------------
IN: 
Priv: 3; Virt: 0
0x800010d8:  00058603          lb                      a2,0(a1)
0x800010dc:  00158993          addi                    s3,a1,1
0x800010e0:  854a              mv                      a0,s2
0x800010e2:  85b2              mv                      a1,a2
0x800010e4:  00002097          auipc                   ra,2                    # 0x800030e4
0x800010e8:  bc8080e7          jalr                    ra,ra,-1080

----------------
IN: 
Priv: 3; Virt: 0
0x800010f2:  0310000f          fence                   rw,w
0x800010f6:  00048023          sb                      zero,0(s1)
0x800010fa:  70a2              ld                      ra,40(sp)
0x800010fc:  7402              ld                      s0,32(sp)
0x800010fe:  64e2              ld                      s1,24(sp)
0x80001100:  6942              ld                      s2,16(sp)
0x80001102:  69a2              ld                      s3,8(sp)
0x80001104:  6145              addi                    sp,sp,48
0x80001106:  8082              ret                     

----------------
IN: 
Priv: 3; Virt: 0
0x8000165a:  4501              mv                      a0,zero
0x8000165c:  60e2              ld                      ra,24(sp)
0x8000165e:  6442              ld                      s0,16(sp)
0x80001660:  64a2              ld                      s1,8(sp)
0x80001662:  6902              ld                      s2,0(sp)
0x80001664:  6105              addi                    sp,sp,32
0x80001666:  8082              ret                     

----------------
IN: 
Priv: 3; Virt: 0
0x80004a10:  10051163          bnez                    a0,258                  # 0x80004b12

----------------
IN: 
Priv: 3; Virt: 0
0x80004a14:  4448              lw                      a0,12(s0)
0x80004a16:  da2a              sw                      a0,52(sp)
0x80004a18:  01040503          lb                      a0,16(s0)
0x80004a1c:  02a10c23          sb                      a0,56(sp)
0x80004a20:  440c              lw                      a1,8(s0)
0x80004a22:  0209b503          ld                      a0,32(s3)
0x80004a26:  d82e              sw                      a1,48(sp)
0x80004a28:  ff843683          ld                      a3,-8(s0)
0x80004a2c:  600c              ld                      a1,0(s0)
0x80004a2e:  ce89              beqz                    a3,26                   # 0x80004a48

----------------
IN: 
Priv: 3; Virt: 0
0x80004a30:  4601              mv                      a2,zero
0x80004a32:  01569c63          bne                     a3,s5,24                # 0x80004a4a

----------------
IN: 
Priv: 3; Virt: 0
0x80004a4a:  e832              sd                      a2,16(sp)
0x80004a4c:  ec2e              sd                      a1,24(sp)
0x80004a4e:  fe843683          ld                      a3,-24(s0)
0x80004a52:  ff043583          ld                      a1,-16(s0)
0x80004a56:  ce89              beqz                    a3,26                   # 0x80004a70

----------------
IN: 
Priv: 3; Virt: 0
0x80004a58:  4601              mv                      a2,zero
0x80004a5a:  01569c63          bne                     a3,s5,24                # 0x80004a72

----------------
IN: 
Priv: 3; Virt: 0
0x80004a72:  f032              sd                      a2,32(sp)
0x80004a74:  f42e              sd                      a1,40(sp)
0x80004a76:  6c0c              ld                      a1,24(s0)
0x80004a78:  0592              slli                    a1,a1,4
0x80004a7a:  952e              add                     a0,a0,a1
0x80004a7c:  6510              ld                      a2,8(a0)
0x80004a7e:  6108              ld                      a0,0(a0)
0x80004a80:  858a              mv                      a1,sp
0x80004a82:  9602              jalr                    ra,a2,0

----------------
IN: 
Priv: 3; Virt: 0
0x800014c6:  6110              ld                      a2,0(a0)
0x800014c8:  6514              ld                      a3,8(a0)
0x800014ca:  872e              mv                      a4,a1
0x800014cc:  8532              mv                      a0,a2
0x800014ce:  85b6              mv                      a1,a3
0x800014d0:  863a              mv                      a2,a4
0x800014d2:  00004317          auipc                   t1,4                    # 0x800054d2
0x800014d6:  ccc30067          jalr                    zero,t1,-820

----------------
IN: 
Priv: 3; Virt: 0
0x8000519e:  86ae              mv                      a3,a1
0x800051a0:  85aa              mv                      a1,a0
0x800051a2:  8532              mv                      a0,a2
0x800051a4:  8636              mv                      a2,a3
0x800051a6:  00000317          auipc                   t1,0                    # 0x800051a6
0x800051aa:  bfa30067          jalr                    zero,t1,-1030

----------------
IN: 
Priv: 3; Virt: 0
0x80004da0:  715d              addi                    sp,sp,-80
0x80004da2:  e486              sd                      ra,72(sp)
0x80004da4:  e0a2              sd                      s0,64(sp)
0x80004da6:  fc26              sd                      s1,56(sp)
0x80004da8:  f84a              sd                      s2,48(sp)
0x80004daa:  f44e              sd                      s3,40(sp)
0x80004dac:  f052              sd                      s4,32(sp)
0x80004dae:  ec56              sd                      s5,24(sp)
0x80004db0:  e85a              sd                      s6,16(sp)
0x80004db2:  e45e              sd                      s7,8(sp)
0x80004db4:  8a2a              mv                      s4,a0
0x80004db6:  01053283          ld                      t0,16(a0)
0x80004dba:  7108              ld                      a0,32(a0)
0x80004dbc:  fff28693          addi                    a3,t0,-1
0x80004dc0:  00d036b3          snez                    a3,a3
0x80004dc4:  fff50713          addi                    a4,a0,-1
0x80004dc8:  00e03733          snez                    a4,a4
0x80004dcc:  8ef9              and                     a3,a3,a4
0x80004dce:  89b2              mv                      s3,a2
0x80004dd0:  892e              mv                      s2,a1
0x80004dd2:  16069d63          bnez                    a3,378                  # 0x80004f4c

----------------
IN: 
Priv: 3; Virt: 0
0x80004f4c:  008a3583          ld                      a1,8(s4)
0x80004f50:  000a3503          ld                      a0,0(s4)
0x80004f54:  6d9c              ld                      a5,24(a1)
0x80004f56:  85ca              mv                      a1,s2
0x80004f58:  864e              mv                      a2,s3
0x80004f5a:  60a6              ld                      ra,72(sp)
0x80004f5c:  6406              ld                      s0,64(sp)
0x80004f5e:  74e2              ld                      s1,56(sp)
0x80004f60:  7942              ld                      s2,48(sp)
0x80004f62:  79a2              ld                      s3,40(sp)
0x80004f64:  7a02              ld                      s4,32(sp)
0x80004f66:  6ae2              ld                      s5,24(sp)
0x80004f68:  6b42              ld                      s6,16(sp)
0x80004f6a:  6ba2              ld                      s7,8(sp)
0x80004f6c:  6161              addi                    sp,sp,80
0x80004f6e:  8782              jr                      a5

----------------
IN: 
Priv: 3; Virt: 0
0x80004a84:  e559              bnez                    a0,142                  # 0x80004b12

----------------
IN: 
Priv: 3; Virt: 0
0x80004a86:  04c1              addi                    s1,s1,16
0x80004a88:  fc8a0a13          addi                    s4,s4,-56
0x80004a8c:  03840413          addi                    s0,s0,56
0x80004a90:  f60a18e3          bnez                    s4,-144                 # 0x80004a00

----------------
IN: 
Priv: 3; Virt: 0
0x80004a00:  6090              ld                      a2,0(s1)
0x80004a02:  ca09              beqz                    a2,18                   # 0x80004a14

----------------
IN: 
Priv: 3; Virt: 0
0x80002aee:  711d              addi                    sp,sp,-96
0x80002af0:  ec86              sd                      ra,88(sp)
0x80002af2:  86aa              mv                      a3,a0
0x80002af4:  6148              ld                      a0,128(a0)
0x80002af6:  08100713          addi                    a4,zero,129
0x80002afa:  04e57063          bleu                    a4,a0,64                # 0x80002b3a

----------------
IN: 
Priv: 3; Virt: 0
0x80002afe:  862e              mv                      a2,a1
0x80002b00:  e4b6              sd                      a3,72(sp)
0x80002b02:  e8aa              sd                      a0,80(sp)
0x80002b04:  00a8              addi                    a0,sp,72
0x80002b06:  fc2a              sd                      a0,56(sp)
0x80002b08:  fffff517          auipc                   a0,-1                   # 0x80001b08
0x80002b0c:  9be50513          addi                    a0,a0,-1602
0x80002b10:  e0aa              sd                      a0,64(sp)
0x80002b12:  00004517          auipc                   a0,4                    # 0x80006b12
0x80002b16:  15650513          addi                    a0,a0,342
0x80002b1a:  ec2a              sd                      a0,24(sp)
0x80002b1c:  4505              addi                    a0,zero,1
0x80002b1e:  f02a              sd                      a0,32(sp)
0x80002b20:  e402              sd                      zero,8(sp)
0x80002b22:  182c              addi                    a1,sp,56
0x80002b24:  f42e              sd                      a1,40(sp)
0x80002b26:  f82a              sd                      a0,48(sp)
0x80002b28:  002c              addi                    a1,sp,8
0x80002b2a:  8532              mv                      a0,a2
0x80002b2c:  00002097          auipc                   ra,2                    # 0x80004b2c
0x80002b30:  4d0080e7          jalr                    ra,ra,1232

----------------
IN: 
Priv: 3; Virt: 0
0x80004ffc:  7139              addi                    sp,sp,-64
0x80004ffe:  fc06              sd                      ra,56(sp)

----------------
IN: 
Priv: 3; Virt: 0
0x80005000:  7590              ld                      a2,40(a1)
0x80005002:  7198              ld                      a4,32(a1)
0x80005004:  6d9c              ld                      a5,24(a1)
0x80005006:  f832              sd                      a2,48(sp)
0x80005008:  6114              ld                      a3,0(a0)
0x8000500a:  f43a              sd                      a4,40(sp)
0x8000500c:  f03e              sd                      a5,32(sp)
0x8000500e:  6990              ld                      a2,16(a1)
0x80005010:  6598              ld                      a4,8(a1)
0x80005012:  619c              ld                      a5,0(a1)
0x80005014:  650c              ld                      a1,8(a0)
0x80005016:  ec32              sd                      a2,24(sp)
0x80005018:  e83a              sd                      a4,16(sp)
0x8000501a:  e43e              sd                      a5,8(sp)
0x8000501c:  0030              addi                    a2,sp,8
0x8000501e:  8536              mv                      a0,a3
0x80005020:  00000097          auipc                   ra,0                    # 0x80005020
0x80005024:  980080e7          jalr                    ra,ra,-1664

----------------
IN: 
Priv: 3; Virt: 0
0x80004a96:  0289b503          ld                      a0,40(s3)
0x80004a9a:  c931              beqz                    a0,84                   # 0x80004aee

----------------
IN: 
Priv: 3; Virt: 0
0x80004a9c:  0209b583          ld                      a1,32(s3)
0x80004aa0:  0109b603          ld                      a2,16(s3)
0x80004aa4:  fff50693          addi                    a3,a0,-1
0x80004aa8:  0692              slli                    a3,a3,4
0x80004aaa:  8291              srli                    a3,a3,4
0x80004aac:  00168913          addi                    s2,a3,1
0x80004ab0:  00860413          addi                    s0,a2,8
0x80004ab4:  00451a13          slli                    s4,a0,4
0x80004ab8:  00858493          addi                    s1,a1,8
0x80004abc:  6010              ld                      a2,0(s0)
0x80004abe:  ca01              beqz                    a2,16                   # 0x80004ace

----------------
IN: 
Priv: 3; Virt: 0
0x80004ace:  6090              ld                      a2,0(s1)
0x80004ad0:  ff84b503          ld                      a0,-8(s1)
0x80004ad4:  858a              mv                      a1,sp
0x80004ad6:  9602              jalr                    ra,a2,0

----------------
IN: 
Priv: 3; Virt: 0
0x80004ad8:  ed0d              bnez                    a0,58                   # 0x80004b12

----------------
IN: 
Priv: 3; Virt: 0
0x80004ada:  0441              addi                    s0,s0,16
0x80004adc:  1a41              addi                    s4,s4,-16
0x80004ade:  04c1              addi                    s1,s1,16
0x80004ae0:  fc0a1ee3          bnez                    s4,-36                  # 0x80004abc

----------------
IN: 
Priv: 3; Virt: 0
0x80004ae4:  0189b503          ld                      a0,24(s3)
0x80004ae8:  00a96863          bgtu                    a0,s2,16                # 0x80004af8

----------------
IN: 
Priv: 3; Virt: 0
0x80004aec:  a02d              j                       42                      # 0x80004b16

----------------
IN: 
Priv: 3; Virt: 0
0x80004b16:  4501              mv                      a0,zero
0x80004b18:  70e6              ld                      ra,120(sp)
0x80004b1a:  7446              ld                      s0,112(sp)
0x80004b1c:  74a6              ld                      s1,104(sp)
0x80004b1e:  7906              ld                      s2,96(sp)
0x80004b20:  69e6              ld                      s3,88(sp)
0x80004b22:  6a46              ld                      s4,80(sp)
0x80004b24:  6aa6              ld                      s5,72(sp)
0x80004b26:  6b06              ld                      s6,64(sp)
0x80004b28:  6109              addi                    sp,sp,128
0x80004b2a:  8082              ret                     

----------------
IN: 
Priv: 3; Virt: 0
0x80005028:  70e2              ld                      ra,56(sp)
0x8000502a:  6121              addi                    sp,sp,64
0x8000502c:  8082              ret                     

----------------
IN: 
Priv: 3; Virt: 0
0x80002b34:  60e6              ld                      ra,88(sp)
0x80002b36:  6125              addi                    sp,sp,96
0x80002b38:  8082              ret                     

----------------
IN: 
Priv: 3; Virt: 0
0x8000594c:  6108              ld                      a0,0(a0)
0x8000594e:  862e              mv                      a2,a1
0x80005950:  4585              addi                    a1,zero,1
0x80005952:  00000317          auipc                   t1,0                    # 0x80005952
0x80005956:  e7430067          jalr                    zero,t1,-396

----------------
IN: 
Priv: 3; Virt: 0
0x800057c6:  7139              addi                    sp,sp,-64
0x800057c8:  fc06              sd                      ra,56(sp)
0x800057ca:  f822              sd                      s0,48(sp)
0x800057cc:  f426              sd                      s1,40(sp)
0x800057ce:  8832              mv                      a6,a2
0x800057d0:  00455693          srli                    a3,a0,4
0x800057d4:  02700713          addi                    a4,zero,39
0x800057d8:  27100793          addi                    a5,zero,625
0x800057dc:  00002e97          auipc                   t4,2                    # 0x800077dc
0x800057e0:  23ee8e93          addi                    t4,t4,574
0x800057e4:  02f6f363          bleu                    a5,a3,38                # 0x8000580a

----------------
IN: 
Priv: 3; Virt: 0
0x800057e8:  06300693          addi                    a3,zero,99
0x800057ec:  0aa6e963          bgtu                    a0,a3,178               # 0x8000589e

----------------
IN: 
Priv: 3; Virt: 0
0x800057f0:  4629              addi                    a2,zero,10
0x800057f2:  0ec57763          bleu                    a2,a0,238               # 0x800058e0

----------------
IN: 
Priv: 3; Virt: 0
0x800057f6:  fff70693          addi                    a3,a4,-1
0x800057fa:  00110613          addi                    a2,sp,1
0x800057fe:  9636              add                     a2,a2,a3
0x80005800:  0305051b          addiw                   a0,a0,48
0x80005804:  00a60023          sb                      a0,0(a2)
0x80005808:  a8dd              j                       246                     # 0x800058fe

----------------
IN: 
Priv: 3; Virt: 0
0x800058fe:  00110513          addi                    a0,sp,1
0x80005902:  00d50733          add                     a4,a0,a3
0x80005906:  02700513          addi                    a0,zero,39
0x8000590a:  40d507b3          sub                     a5,a0,a3
0x8000590e:  00002617          auipc                   a2,2                    # 0x8000790e
0x80005912:  faa60613          addi                    a2,a2,-86
0x80005916:  8542              mv                      a0,a6
0x80005918:  4681              mv                      a3,zero
0x8000591a:  fffff097          auipc                   ra,-1                   # 0x8000491a
0x8000591e:  212080e7          jalr                    ra,ra,530

----------------
IN: 
Priv: 3; Virt: 0
0x80004b2c:  7159              addi                    sp,sp,-112
0x80004b2e:  f486              sd                      ra,104(sp)
0x80004b30:  f0a2              sd                      s0,96(sp)
0x80004b32:  eca6              sd                      s1,88(sp)
0x80004b34:  e8ca              sd                      s2,80(sp)
0x80004b36:  e4ce              sd                      s3,72(sp)
0x80004b38:  e0d2              sd                      s4,64(sp)
0x80004b3a:  fc56              sd                      s5,56(sp)
0x80004b3c:  f85a              sd                      s6,48(sp)
0x80004b3e:  f45e              sd                      s7,40(sp)
0x80004b40:  f062              sd                      s8,32(sp)
0x80004b42:  ec66              sd                      s9,24(sp)
0x80004b44:  e86a              sd                      s10,16(sp)
0x80004b46:  e46e              sd                      s11,8(sp)
0x80004b48:  89be              mv                      s3,a5
0x80004b4a:  893a              mv                      s2,a4
0x80004b4c:  8b36              mv                      s6,a3
0x80004b4e:  8a32              mv                      s4,a2
0x80004b50:  8c2a              mv                      s8,a0
0x80004b52:  c1b9              beqz                    a1,70                   # 0x80004b98

----------------
IN: 
Priv: 3; Virt: 0
0x80004b54:  030c6403          lwu                     s0,48(s8)
0x80004b58:  00147513          andi                    a0,s0,1
0x80004b5c:  00110ab7          lui                     s5,272
0x80004b60:  c119              beqz                    a0,6                    # 0x80004b66

----------------
IN: 
Priv: 3; Virt: 0
0x80004b66:  01350cb3          add                     s9,a0,s3
0x80004b6a:  00447513          andi                    a0,s0,4
0x80004b6e:  cd15              beqz                    a0,60                   # 0x80004baa

----------------
IN: 
Priv: 3; Virt: 0
0x80004baa:  4a01              mv                      s4,zero
0x80004bac:  010c3503          ld                      a0,16(s8)
0x80004bb0:  ed01              bnez                    a0,24                   # 0x80004bc8

----------------
IN: 
Priv: 3; Virt: 0
0x80004bb2:  a099              j                       70                      # 0x80004bf8

----------------
IN: 
Priv: 3; Virt: 0
0x80004bf8:  000c3403          ld                      s0,0(s8)
0x80004bfc:  008c3483          ld                      s1,8(s8)
0x80004c00:  8522              mv                      a0,s0
0x80004c02:  85a6              mv                      a1,s1
0x80004c04:  8656              mv                      a2,s5
0x80004c06:  86d2              mv                      a3,s4
0x80004c08:  875a              mv                      a4,s6
0x80004c0a:  00000097          auipc                   ra,0                    # 0x80004c0a
0x80004c0e:  140080e7          jalr                    ra,ra,320

----------------
IN: 
Priv: 3; Virt: 0
0x80004d4a:  7179              addi                    sp,sp,-48
0x80004d4c:  f406              sd                      ra,40(sp)
0x80004d4e:  f022              sd                      s0,32(sp)
0x80004d50:  ec26              sd                      s1,24(sp)
0x80004d52:  e84a              sd                      s2,16(sp)
0x80004d54:  e44e              sd                      s3,8(sp)
0x80004d56:  0006079b          sext.w                  a5,a2
0x80004d5a:  00110837          lui                     a6,272
0x80004d5e:  893a              mv                      s2,a4
0x80004d60:  84b6              mv                      s1,a3
0x80004d62:  842e              mv                      s0,a1
0x80004d64:  89aa              mv                      s3,a0
0x80004d66:  01078963          beq                     a5,a6,18                # 0x80004d78

----------------
IN: 
Priv: 3; Virt: 0
0x80004d78:  cc81              beqz                    s1,24                   # 0x80004d90

----------------
IN: 
Priv: 3; Virt: 0
0x80004d90:  4501              mv                      a0,zero
0x80004d92:  70a2              ld                      ra,40(sp)
0x80004d94:  7402              ld                      s0,32(sp)
0x80004d96:  64e2              ld                      s1,24(sp)
0x80004d98:  6942              ld                      s2,16(sp)
0x80004d9a:  69a2              ld                      s3,8(sp)
0x80004d9c:  6145              addi                    sp,sp,48
0x80004d9e:  8082              ret                     

----------------
IN: 
Priv: 3; Virt: 0
0x80004c12:  4b85              addi                    s7,zero,1
0x80004c14:  c10d              beqz                    a0,34                   # 0x80004c36

----------------
IN: 
Priv: 3; Virt: 0
0x80004c36:  6c9c              ld                      a5,24(s1)
0x80004c38:  8522              mv                      a0,s0
0x80004c3a:  85ca              mv                      a1,s2
0x80004c3c:  864e              mv                      a2,s3
0x80004c3e:  70a6              ld                      ra,104(sp)
0x80004c40:  7406              ld                      s0,96(sp)
0x80004c42:  64e6              ld                      s1,88(sp)
0x80004c44:  6946              ld                      s2,80(sp)
0x80004c46:  69a6              ld                      s3,72(sp)
0x80004c48:  6a06              ld                      s4,64(sp)
0x80004c4a:  7ae2              ld                      s5,56(sp)
0x80004c4c:  7b42              ld                      s6,48(sp)
0x80004c4e:  7ba2              ld                      s7,40(sp)
0x80004c50:  7c02              ld                      s8,32(sp)
0x80004c52:  6ce2              ld                      s9,24(sp)
0x80004c54:  6d42              ld                      s10,16(sp)
0x80004c56:  6da2              ld                      s11,8(sp)
0x80004c58:  6165              addi                    sp,sp,112
0x80004c5a:  8782              jr                      a5

----------------
IN: 
Priv: 3; Virt: 0
0x80005922:  70e2              ld                      ra,56(sp)
0x80005924:  7442              ld                      s0,48(sp)
0x80005926:  74a2              ld                      s1,40(sp)
0x80005928:  6121              addi                    sp,sp,64
0x8000592a:  8082              ret                     

----------------
IN: 
Priv: 3; Virt: 0
0x80002418:  715d              addi                    sp,sp,-80
0x8000241a:  e486              sd                      ra,72(sp)
0x8000241c:  e0a2              sd                      s0,64(sp)
0x8000241e:  fc26              sd                      s1,56(sp)
0x80002420:  842e              mv                      s0,a1
0x80002422:  84aa              mv                      s1,a0
0x80002424:  852e              mv                      a0,a1
0x80002426:  00003097          auipc                   ra,3                    # 0x80005426
0x8000242a:  c08080e7          jalr                    ra,ra,-1016

----------------
IN: 
Priv: 3; Virt: 0
0x8000502e:  03054503          lbu                     a0,48(a0)
0x80005032:  156e              slli                    a0,a0,59
0x80005034:  917d              srli                    a0,a0,63
0x80005036:  8082              ret                     

----------------
IN: 
Priv: 3; Virt: 0
0x8000242e:  c909              beqz                    a0,18                   # 0x80002440

----------------
IN: 
Priv: 3; Virt: 0
0x80002430:  8526              mv                      a0,s1
0x80002432:  85a2              mv                      a1,s0
0x80002434:  00003097          auipc                   ra,3                    # 0x80005434
0x80002438:  286080e7          jalr                    ra,ra,646

----------------
IN: 
Priv: 3; Virt: 0
0x800056ba:  7175              addi                    sp,sp,-144
0x800056bc:  e506              sd                      ra,136(sp)
0x800056be:  882e              mv                      a6,a1
0x800056c0:  4581              mv                      a1,zero
0x800056c2:  6118              ld                      a4,0(a0)
0x800056c4:  00810893          addi                    a7,sp,8
0x800056c8:  42a9              addi                    t0,zero,10
0x800056ca:  433d              addi                    t1,zero,15
0x800056cc:  a819              j                       22                      # 0x800056e2

----------------
IN: 
Priv: 3; Virt: 0
0x800056e2:  853a              mv                      a0,a4
0x800056e4:  00f77793          andi                    a5,a4,15
0x800056e8:  03000613          addi                    a2,zero,48
0x800056ec:  fe57e1e3          bgtu                    t0,a5,-30               # 0x800056ce

----------------
IN: 
Priv: 3; Virt: 0
0x800056ce:  00b886b3          add                     a3,a7,a1
0x800056d2:  00455713          srli                    a4,a0,4
0x800056d6:  9e3d              addw                    a2,a2,a5
0x800056d8:  06c68fa3          sb                      a2,127(a3)
0x800056dc:  15fd              addi                    a1,a1,-1
0x800056de:  00a37c63          bleu                    a0,t1,24                # 0x800056f6

----------------
IN: 
Priv: 3; Virt: 0
0x800056f6:  08058513          addi                    a0,a1,128
0x800056fa:  08100613          addi                    a2,zero,129
0x800056fe:  02c57663          bleu                    a2,a0,44                # 0x8000572a

----------------
IN: 
Priv: 3; Virt: 0
0x80005702:  0028              addi                    a0,sp,8
0x80005704:  952e              add                     a0,a0,a1
0x80005706:  08050713          addi                    a4,a0,128
0x8000570a:  40b007b3          neg                     a5,a1
0x8000570e:  00002617          auipc                   a2,2                    # 0x8000770e
0x80005712:  30a60613          addi                    a2,a2,778
0x80005716:  4585              addi                    a1,zero,1
0x80005718:  4689              addi                    a3,zero,2
0x8000571a:  8542              mv                      a0,a6
0x8000571c:  fffff097          auipc                   ra,-1                   # 0x8000471c
0x80005720:  410080e7          jalr                    ra,ra,1040

----------------
IN: 
Priv: 3; Virt: 0
0x80004b70:  02000513          addi                    a0,zero,32
0x80004b74:  04ab7063          bleu                    a0,s6,64                # 0x80004bb4

----------------
IN: 
Priv: 3; Virt: 0
0x80004b78:  4501              mv                      a0,zero
0x80004b7a:  040b0363          beqz                    s6,70                   # 0x80004bc0

----------------
IN: 
Priv: 3; Virt: 0
0x80004b7e:  85da              mv                      a1,s6
0x80004b80:  8652              mv                      a2,s4
0x80004b82:  00060683          lb                      a3,0(a2)
0x80004b86:  0605              addi                    a2,a2,1
0x80004b88:  fc06a693          slti                    a3,a3,-64
0x80004b8c:  0016c693          xori                    a3,a3,1
0x80004b90:  15fd              addi                    a1,a1,-1
0x80004b92:  9536              add                     a0,a0,a3
0x80004b94:  f5fd              bnez                    a1,-18                  # 0x80004b82

----------------
IN: 
Priv: 3; Virt: 0
0x80004b82:  00060683          lb                      a3,0(a2)
0x80004b86:  0605              addi                    a2,a2,1
0x80004b88:  fc06a693          slti                    a3,a3,-64
0x80004b8c:  0016c693          xori                    a3,a3,1
0x80004b90:  15fd              addi                    a1,a1,-1
0x80004b92:  9536              add                     a0,a0,a3
0x80004b94:  f5fd              bnez                    a1,-18                  # 0x80004b82

----------------
IN: 
Priv: 3; Virt: 0
0x80004b96:  a02d              j                       42                      # 0x80004bc0

----------------
IN: 
Priv: 3; Virt: 0
0x80004bc0:  9caa              add                     s9,s9,a0
0x80004bc2:  010c3503          ld                      a0,16(s8)
0x80004bc6:  c90d              beqz                    a0,50                   # 0x80004bf8

----------------
IN: 
Priv: 3; Virt: 0
0x80004d7a:  6c1c              ld                      a5,24(s0)
0x80004d7c:  854e              mv                      a0,s3
0x80004d7e:  85a6              mv                      a1,s1
0x80004d80:  864a              mv                      a2,s2
0x80004d82:  70a2              ld                      ra,40(sp)
0x80004d84:  7402              ld                      s0,32(sp)
0x80004d86:  64e2              ld                      s1,24(sp)
0x80004d88:  6942              ld                      s2,16(sp)
0x80004d8a:  69a2              ld                      s3,8(sp)
0x80004d8c:  6145              addi                    sp,sp,48
0x80004d8e:  8782              jr                      a5

----------------
IN: 
Priv: 3; Virt: 0
0x80005724:  60aa              ld                      ra,136(sp)
0x80005726:  6149              addi                    sp,sp,144
0x80005728:  8082              ret                     

----------------
IN: 
Priv: 3; Virt: 0
0x8000243c:  c51d              beqz                    a0,46                   # 0x8000246a

----------------
IN: 
Priv: 3; Virt: 0
0x8000246a:  00004517          auipc                   a0,4                    # 0x8000646a
0x8000246e:  40650513          addi                    a0,a0,1030
0x80002472:  ec2a              sd                      a0,24(sp)
0x80002474:  4505              addi                    a0,zero,1
0x80002476:  f02a              sd                      a0,32(sp)
0x80002478:  e402              sd                      zero,8(sp)
0x8000247a:  00004517          auipc                   a0,4                    # 0x8000647a
0x8000247e:  3ee50513          addi                    a0,a0,1006
0x80002482:  f42a              sd                      a0,40(sp)
0x80002484:  f802              sd                      zero,48(sp)
0x80002486:  002c              addi                    a1,sp,8
0x80002488:  8522              mv                      a0,s0
0x8000248a:  00003097          auipc                   ra,3                    # 0x8000548a
0x8000248e:  b72080e7          jalr                    ra,ra,-1166

----------------
IN: 
Priv: 3; Virt: 0
0x80004aee:  4901              mv                      s2,zero
0x80004af0:  0189b503          ld                      a0,24(s3)
0x80004af4:  02a97163          bleu                    a0,s2,34                # 0x80004b16

----------------
IN: 
Priv: 3; Virt: 0
0x80004af8:  0109b503          ld                      a0,16(s3)
0x80004afc:  00491593          slli                    a1,s2,4
0x80004b00:  00b50633          add                     a2,a0,a1
0x80004b04:  66a2              ld                      a3,8(sp)
0x80004b06:  6502              ld                      a0,0(sp)
0x80004b08:  620c              ld                      a1,0(a2)
0x80004b0a:  6610              ld                      a2,8(a2)
0x80004b0c:  6e94              ld                      a3,24(a3)
0x80004b0e:  9682              jalr                    ra,a3,0

----------------
IN: 
Priv: 3; Virt: 0
0x80004b10:  c119              beqz                    a0,6                    # 0x80004b16

----------------
IN: 
Priv: 3; Virt: 0
0x80002492:  c519              beqz                    a0,14                   # 0x800024a0

----------------
IN: 
Priv: 3; Virt: 0
0x800024a0:  04a1              addi                    s1,s1,8
0x800024a2:  8522              mv                      a0,s0
0x800024a4:  00003097          auipc                   ra,3                    # 0x800054a4
0x800024a8:  b8a080e7          jalr                    ra,ra,-1142

----------------
IN: 
Priv: 3; Virt: 0
0x800024ac:  c919              beqz                    a0,22                   # 0x800024c2

----------------
IN: 
Priv: 3; Virt: 0
0x800024ae:  8526              mv                      a0,s1
0x800024b0:  85a2              mv                      a1,s0
0x800024b2:  60a6              ld                      ra,72(sp)
0x800024b4:  6406              ld                      s0,64(sp)
0x800024b6:  74e2              ld                      s1,56(sp)
0x800024b8:  6161              addi                    sp,sp,80
0x800024ba:  00003317          auipc                   t1,3                    # 0x800054ba
0x800024be:  20030067          jalr                    zero,t1,512

----------------
IN: 
Priv: 3; Virt: 0
0x800056f0:  05700613          addi                    a2,zero,87
0x800056f4:  bfe9              j                       -38                     # 0x800056ce

----------------
IN: 
Priv: 3; Virt: 0
0x80004a94:  a881              j                       80                      # 0x80004ae4

----------------
IN: 
Priv: 3; Virt: 0
0x8000034c:  2a051563          bnez                    a0,682                  # 0x800005f6

----------------
IN: 
Priv: 3; Virt: 0
0x80000350:  4405              addi                    s0,zero,1
0x80000352:  a019              j                       6                       # 0x80000358

----------------
IN: 
Priv: 3; Virt: 0
0x80000358:  00848503          lb                      a0,8(s1)
0x8000035c:  0230000f          fence                   r,rw
0x80000360:  00004097          auipc                   ra,4                    # 0x80004360
0x80000364:  a34080e7          jalr                    ra,ra,-1484

----------------
IN: 
Priv: 3; Virt: 0
0x80000368:  0ff57513          andi                    a0,a0,255
0x8000036c:  fea054e3          blez                    a0,-24                  # 0x80000354

----------------
IN: 
Priv: 3; Virt: 0
0x80000370:  00851563          bne                     a0,s0,10                # 0x8000037a

----------------
IN: 
Priv: 3; Virt: 0
0x8000037a:  4589              addi                    a1,zero,2
0x8000037c:  24b51e63          bne                     a0,a1,604               # 0x800005d8

----------------
IN: 
Priv: 3; Virt: 0
0x80000380:  01093503          ld                      a0,16(s2)
0x80000384:  01893583          ld                      a1,24(s2)
0x80000388:  3a002673          csrrs                   a2,pmpcfg3,zero

----------------
IN: 
Priv: 3; Virt: 0
0x8000038c:  f0067613          andi                    a2,a2,-256
0x80000390:  3a061073          csrrw                   zero,pmpcfg3,a2

----------------
IN: 
Priv: 3; Virt: 0
0x80000394:  3b001073          csrrw                   zero,pmpaddr0,zero

----------------
IN: 
Priv: 3; Virt: 0
0x80000398:  3a002673          csrrs                   a2,pmpcfg3,zero

----------------
IN: 
Priv: 3; Virt: 0
0x8000039c:  76c1              lui                     a3,-16
0x8000039e:  0ff6869b          addiw                   a3,a3,255
0x800003a2:  8e75              and                     a2,a2,a3
0x800003a4:  6685              lui                     a3,1
0x800003a6:  b006869b          addiw                   a3,a3,-1280
0x800003aa:  8e55              or                      a2,a2,a3
0x800003ac:  3a061073          csrrw                   zero,pmpcfg3,a2

----------------
IN: 
Priv: 3; Virt: 0
0x800003b0:  8109              srli                    a0,a0,2
0x800003b2:  3b151073          csrrw                   zero,pmpaddr1,a0

----------------
IN: 
Priv: 3; Virt: 0
0x800003b6:  3a002573          csrrs                   a0,pmpcfg3,zero

----------------
IN: 
Priv: 3; Virt: 0
0x800003ba:  ff010637          lui                     a2,-4080
0x800003be:  367d              addiw                   a2,a2,-1
0x800003c0:  8d71              and                     a0,a0,a2
0x800003c2:  00080637          lui                     a2,128
0x800003c6:  8d51              or                      a0,a0,a2
0x800003c8:  3a051073          csrrw                   zero,pmpcfg3,a0

----------------
IN: 
Priv: 3; Virt: 0
0x800003cc:  20080537          lui                     a0,131200
0x800003d0:  3b251073          csrrw                   zero,pmpaddr2,a0

----------------
IN: 
Priv: 3; Virt: 0
0x800003d4:  3a002573          csrrs                   a0,pmpcfg3,zero

----------------
IN: 
Priv: 3; Virt: 0
0x800003d8:  f0100613          addi                    a2,zero,-255
0x800003dc:  01861693          slli                    a3,a2,24
0x800003e0:  16fd              addi                    a3,a3,-1
0x800003e2:  8d75              and                     a0,a0,a3
0x800003e4:  0f0006b7          lui                     a3,61440
0x800003e8:  8d55              or                      a0,a0,a3
0x800003ea:  3a051073          csrrw                   zero,pmpcfg3,a0

----------------
IN: 
Priv: 3; Virt: 0
0x800003ee:  0025d513          srli                    a0,a1,2
0x800003f2:  3b351073          csrrw                   zero,pmpaddr3,a0

----------------
IN: 
Priv: 3; Virt: 0
0x800003f6:  3a002573          csrrs                   a0,pmpcfg3,zero

----------------
IN: 
Priv: 3; Virt: 0
0x800003fa:  02061593          slli                    a1,a2,32
0x800003fe:  15fd              addi                    a1,a1,-1
0x80000400:  8d6d              and                     a0,a0,a1
0x80000402:  45ad              addi                    a1,zero,11
0x80000404:  1582              slli                    a1,a1,32
0x80000406:  8d4d              or                      a0,a0,a1
0x80000408:  3a051073          csrrw                   zero,pmpcfg3,a0

----------------
IN: 
Priv: 3; Virt: 0
0x8000040c:  547d              addi                    s0,zero,-1
0x8000040e:  03f41513          slli                    a0,s0,63
0x80000412:  3b451073          csrrw                   zero,pmpaddr4,a0

----------------
IN: 
Priv: 3; Virt: 0
0x80000416:  00002097          auipc                   ra,2                    # 0x80002416
0x8000041a:  0e2080e7          jalr                    ra,ra,226

----------------
IN: 
Priv: 3; Virt: 0
0x800024f8:  715d              addi                    sp,sp,-80
0x800024fa:  e486              sd                      ra,72(sp)
0x800024fc:  e0a2              sd                      s0,64(sp)
0x800024fe:  fc26              sd                      s1,56(sp)
0x80002500:  f84a              sd                      s2,48(sp)
0x80002502:  f44e              sd                      s3,40(sp)
0x80002504:  f052              sd                      s4,32(sp)
0x80002506:  ec56              sd                      s5,24(sp)
0x80002508:  e85a              sd                      s6,16(sp)
0x8000250a:  e45e              sd                      s7,8(sp)
0x8000250c:  e062              sd                      s8,0(sp)
0x8000250e:  4c01              mv                      s8,zero
0x80002510:  4b05              addi                    s6,zero,1
0x80002512:  493d              addi                    s2,zero,15
0x80002514:  00004997          auipc                   s3,4                    # 0x80006514
0x80002518:  46c98993          addi                    s3,s3,1132
0x8000251c:  4a21              addi                    s4,zero,8
0x8000251e:  4a89              addi                    s5,zero,2
0x80002520:  4505              addi                    a0,zero,1
0x80002522:  a029              j                       10                      # 0x8000252c

----------------
IN: 
Priv: 3; Virt: 0
0x8000252c:  00157b93          andi                    s7,a0,1
0x80002530:  000b8563          beqz                    s7,10                   # 0x8000253a

----------------
IN: 
Priv: 3; Virt: 0
0x80002534:  3a002473          csrrs                   s0,pmpcfg3,zero

----------------
IN: 
Priv: 3; Virt: 0
0x80002538:  a019              j                       6                       # 0x8000253e

----------------
IN: 
Priv: 3; Virt: 0
0x8000253e:  4481              mv                      s1,zero
0x80002540:  a839              j                       30                      # 0x8000255e

----------------
IN: 
Priv: 3; Virt: 0
0x8000255e:  03b41513          slli                    a0,s0,59
0x80002562:  9179              srli                    a0,a0,62
0x80002564:  02ab4263          bgt                     a0,s6,36                # 0x80002588

----------------
IN: 
Priv: 3; Virt: 0
0x80002568:  d57d              beqz                    a0,-18                  # 0x80002556

----------------
IN: 
Priv: 3; Virt: 0
0x80002556:  0485              addi                    s1,s1,1
0x80002558:  8021              srli                    s0,s0,8
0x8000255a:  fd4485e3          beq                     s1,s4,-54               # 0x80002524

----------------
IN: 
Priv: 3; Virt: 0
0x8000256a:  009c0533          add                     a0,s8,s1
0x8000256e:  fff50593          addi                    a1,a0,-1
0x80002572:  26b96e63          bgtu                    a1,s2,636               # 0x800027ee

----------------
IN: 
Priv: 3; Virt: 0
0x80002576:  058e              slli                    a1,a1,3
0x80002578:  95ce              add                     a1,a1,s3
0x8000257a:  618c              ld                      a1,0(a1)
0x8000257c:  8582              jr                      a1

----------------
IN: 
Priv: 3; Virt: 0
0x8000257e:  3b0025f3          csrrs                   a1,pmpaddr0,zero

----------------
IN: 
Priv: 3; Virt: 0
0x80002582:  3b102673          csrrs                   a2,pmpaddr1,zero

----------------
IN: 
Priv: 3; Virt: 0
0x80002586:  a8e1              j                       216                     # 0x8000265e

----------------
IN: 
Priv: 3; Virt: 0
0x8000265e:  058a              slli                    a1,a1,2
0x80002660:  060a              slli                    a2,a2,2
0x80002662:  b5ed              j                       -278                    # 0x8000254c

----------------
IN: 
Priv: 3; Virt: 0
0x8000254c:  86a2              mv                      a3,s0
0x8000254e:  00000097          auipc                   ra,0                    # 0x8000254e
0x80002552:  2bc080e7          jalr                    ra,ra,700

----------------
IN: 
Priv: 3; Virt: 0
0x8000280a:  db010113          addi                    sp,sp,-592
0x8000280e:  24113423          sd                      ra,584(sp)
0x80002812:  24813023          sd                      s0,576(sp)
0x80002816:  e42a              sd                      a0,8(sp)
0x80002818:  e82e              sd                      a1,16(sp)
0x8000281a:  0046f713          andi                    a4,a3,4
0x8000281e:  00004597          auipc                   a1,4                    # 0x8000681e
0x80002822:  34b58593          addi                    a1,a1,843
0x80002826:  ec32              sd                      a2,24(sp)
0x80002828:  852e              mv                      a0,a1
0x8000282a:  c709              beqz                    a4,10                   # 0x80002834

----------------
IN: 
Priv: 3; Virt: 0
0x80002834:  e12a              sd                      a0,128(sp)
0x80002836:  4505              addi                    a0,zero,1
0x80002838:  0026f713          andi                    a4,a3,2
0x8000283c:  e52a              sd                      a0,136(sp)
0x8000283e:  862e              mv                      a2,a1
0x80002840:  c709              beqz                    a4,10                   # 0x8000284a

----------------
IN: 
Priv: 3; Virt: 0
0x80002842:  00004617          auipc                   a2,4                    # 0x80006842
0x80002846:  32860613          addi                    a2,a2,808
0x8000284a:  e932              sd                      a2,144(sp)
0x8000284c:  0016f613          andi                    a2,a3,1
0x80002850:  ed2a              sd                      a0,152(sp)
0x80002852:  c609              beqz                    a2,10                   # 0x8000285c

----------------
IN: 
Priv: 3; Virt: 0
0x80002854:  00004597          auipc                   a1,4                    # 0x80006854
0x80002858:  31758593          addi                    a1,a1,791
0x8000285c:  f12e              sd                      a1,160(sp)
0x8000285e:  f52a              sd                      a0,168(sp)
0x80002860:  002c              addi                    a1,sp,8
0x80002862:  f02e              sd                      a1,32(sp)
0x80002864:  00003597          auipc                   a1,3                    # 0x80005864
0x80002868:  0e858593          addi                    a1,a1,232
0x8000286c:  f42e              sd                      a1,40(sp)
0x8000286e:  080c              addi                    a1,sp,16
0x80002870:  f82e              sd                      a1,48(sp)
0x80002872:  00003597          auipc                   a1,3                    # 0x80005872
0x80002876:  e4858593          addi                    a1,a1,-440
0x8000287a:  fc2e              sd                      a1,56(sp)
0x8000287c:  0830              addi                    a2,sp,24
0x8000287e:  e0b2              sd                      a2,64(sp)
0x80002880:  e4ae              sd                      a1,72(sp)
0x80002882:  010c              addi                    a1,sp,128
0x80002884:  e8ae              sd                      a1,80(sp)
0x80002886:  fffff597          auipc                   a1,-1                   # 0x80001886
0x8000288a:  c4058593          addi                    a1,a1,-960
0x8000288e:  ecae              sd                      a1,88(sp)
0x80002890:  0910              addi                    a2,sp,144
0x80002892:  f0b2              sd                      a2,96(sp)
0x80002894:  f4ae              sd                      a1,104(sp)
0x80002896:  1110              addi                    a2,sp,160
0x80002898:  f8b2              sd                      a2,112(sp)
0x8000289a:  fcae              sd                      a1,120(sp)
0x8000289c:  4589              addi                    a1,zero,2
0x8000289e:  f92e              sd                      a1,176(sp)
0x800028a0:  e182              sd                      zero,192(sp)
0x800028a2:  e5ae              sd                      a1,200(sp)
0x800028a4:  02551613          slli                    a2,a0,37
0x800028a8:  00860693          addi                    a3,a2,8
0x800028ac:  e9b6              sd                      a3,208(sp)
0x800028ae:  468d              addi                    a3,zero,3
0x800028b0:  0cd10c23          sb                      a3,216(sp)
0x800028b4:  f182              sd                      zero,224(sp)
0x800028b6:  f5ae              sd                      a1,232(sp)
0x800028b8:  fd82              sd                      zero,248(sp)
0x800028ba:  4729              addi                    a4,zero,10
0x800028bc:  e23a              sd                      a4,256(sp)
0x800028be:  00c60793          addi                    a5,a2,12
0x800028c2:  e63e              sd                      a5,264(sp)
0x800028c4:  10d10823          sb                      a3,272(sp)
0x800028c8:  ee2a              sd                      a0,280(sp)
0x800028ca:  f22e              sd                      a1,288(sp)
0x800028cc:  fa02              sd                      zero,304(sp)
0x800028ce:  fe3a              sd                      a4,312(sp)
0x800028d0:  e2be              sd                      a5,320(sp)
0x800028d2:  14d10423          sb                      a3,328(sp)
0x800028d6:  eaae              sd                      a1,336(sp)
0x800028d8:  eeae              sd                      a1,344(sp)
0x800028da:  f6ae              sd                      a1,360(sp)
0x800028dc:  feb2              sd                      a2,376(sp)
0x800028de:  18d10023          sb                      a3,384(sp)
0x800028e2:  e736              sd                      a3,392(sp)
0x800028e4:  eb2e              sd                      a1,400(sp)
0x800028e6:  f32e              sd                      a1,416(sp)
0x800028e8:  fb32              sd                      a2,432(sp)
0x800028ea:  1ad10c23          sb                      a3,440(sp)
0x800028ee:  4511              addi                    a0,zero,4
0x800028f0:  e3aa              sd                      a0,448(sp)
0x800028f2:  e7ae              sd                      a1,456(sp)
0x800028f4:  efae              sd                      a1,472(sp)
0x800028f6:  f7b2              sd                      a2,488(sp)
0x800028f8:  1ed10823          sb                      a3,496(sp)
0x800028fc:  4515              addi                    a0,zero,5
0x800028fe:  ffaa              sd                      a0,504(sp)
0x80002900:  1c20              addi                    s0,sp,568
0x80002902:  20813023          sd                      s0,512(sp)
0x80002906:  1908              addi                    a0,sp,176
0x80002908:  20a13423          sd                      a0,520(sp)
0x8000290c:  4519              addi                    a0,zero,6
0x8000290e:  20a13823          sd                      a0,528(sp)
0x80002912:  00004597          auipc                   a1,4                    # 0x80006912
0x80002916:  1e658593          addi                    a1,a1,486
0x8000291a:  20b13c23          sd                      a1,536(sp)
0x8000291e:  459d              addi                    a1,zero,7
0x80002920:  22b13023          sd                      a1,544(sp)
0x80002924:  100c              addi                    a1,sp,32
0x80002926:  22b13423          sd                      a1,552(sp)
0x8000292a:  22a13823          sd                      a0,560(sp)
0x8000292e:  00004597          auipc                   a1,4                    # 0x8000692e
0x80002932:  b1258593          addi                    a1,a1,-1262
0x80002936:  0408              addi                    a0,sp,512
0x80002938:  0430              addi                    a2,sp,520
0x8000293a:  00002097          auipc                   ra,2                    # 0x8000493a
0x8000293e:  066080e7          jalr                    ra,ra,102

----------------
IN: 
Priv: 3; Virt: 0
0x80004a48:  4605              addi                    a2,zero,1
0x80004a4a:  e832              sd                      a2,16(sp)
0x80004a4c:  ec2e              sd                      a1,24(sp)
0x80004a4e:  fe843683          ld                      a3,-24(s0)
0x80004a52:  ff043583          ld                      a1,-16(s0)
0x80004a56:  ce89              beqz                    a3,26                   # 0x80004a70

----------------
IN: 
Priv: 3; Virt: 0
0x80004bc8:  018c3d03          ld                      s10,24(s8)
0x80004bcc:  03acf663          bleu                    s10,s9,44               # 0x80004bf8

----------------
IN: 
Priv: 3; Virt: 0
0x80004bd0:  00847513          andi                    a0,s0,8
0x80004bd4:  e541              bnez                    a0,136                  # 0x80004c5c

----------------
IN: 
Priv: 3; Virt: 0
0x80004c5c:  034c2403          lw                      s0,52(s8)
0x80004c60:  03000513          addi                    a0,zero,48
0x80004c64:  038c4583          lbu                     a1,56(s8)
0x80004c68:  e02e              sd                      a1,0(sp)
0x80004c6a:  000c3d83          ld                      s11,0(s8)
0x80004c6e:  008c3483          ld                      s1,8(s8)
0x80004c72:  02ac2a23          sw                      a0,52(s8)
0x80004c76:  4b85              addi                    s7,zero,1
0x80004c78:  037c0c23          sb                      s7,56(s8)
0x80004c7c:  856e              mv                      a0,s11
0x80004c7e:  85a6              mv                      a1,s1
0x80004c80:  8656              mv                      a2,s5
0x80004c82:  86d2              mv                      a3,s4
0x80004c84:  875a              mv                      a4,s6
0x80004c86:  00000097          auipc                   ra,0                    # 0x80004c86
0x80004c8a:  0c4080e7          jalr                    ra,ra,196

----------------
IN: 
Priv: 3; Virt: 0
0x80004c8e:  f541              bnez                    a0,-120                 # 0x80004c16

----------------
IN: 
Priv: 3; Virt: 0
0x80004c90:  8a22              mv                      s4,s0
0x80004c92:  419d0533          sub                     a0,s10,s9
0x80004c96:  00150413          addi                    s0,a0,1
0x80004c9a:  147d              addi                    s0,s0,-1
0x80004c9c:  c449              beqz                    s0,138                  # 0x80004d26

----------------
IN: 
Priv: 3; Virt: 0
0x80004c9e:  7090              ld                      a2,32(s1)
0x80004ca0:  03000593          addi                    a1,zero,48
0x80004ca4:  856e              mv                      a0,s11
0x80004ca6:  9602              jalr                    ra,a2,0

----------------
IN: 
Priv: 3; Virt: 0
0x800014dc:  1101              addi                    sp,sp,-32
0x800014de:  ec06              sd                      ra,24(sp)
0x800014e0:  e822              sd                      s0,16(sp)
0x800014e2:  e426              sd                      s1,8(sp)
0x800014e4:  0005851b          sext.w                  a0,a1
0x800014e8:  08000613          addi                    a2,zero,128
0x800014ec:  c202              sw                      zero,4(sp)
0x800014ee:  00c57663          bleu                    a2,a0,12                # 0x800014fa

----------------
IN: 
Priv: 3; Virt: 0
0x800014f2:  00b10223          sb                      a1,4(sp)
0x800014f6:  4405              addi                    s0,zero,1
0x800014f8:  a851              j                       148                     # 0x8000158c

----------------
IN: 
Priv: 3; Virt: 0
0x8000158c:  00027497          auipc                   s1,39                   # 0x8002858c
0x80001590:  a2448493          addi                    s1,s1,-1500
0x80001594:  01048503          lb                      a0,16(s1)
0x80001598:  0230000f          fence                   r,rw
0x8000159c:  00002097          auipc                   ra,2                    # 0x8000359c
0x800015a0:  7f8080e7          jalr                    ra,ra,2040

----------------
IN: 
Priv: 3; Virt: 0
0x800015a4:  0ff57513          andi                    a0,a0,255
0x800015a8:  4589              addi                    a1,zero,2
0x800015aa:  00b51e63          bne                     a0,a1,28                # 0x800015c6

----------------
IN: 
Priv: 3; Virt: 0
0x800015ae:  648c              ld                      a1,8(s1)
0x800015b0:  6088              ld                      a0,0(s1)
0x800015b2:  7194              ld                      a3,32(a1)
0x800015b4:  004c              addi                    a1,sp,4
0x800015b6:  8622              mv                      a2,s0
0x800015b8:  9682              jalr                    ra,a3,0

----------------
IN: 
Priv: 3; Virt: 0
0x800015ba:  4501              mv                      a0,zero
0x800015bc:  60e2              ld                      ra,24(sp)
0x800015be:  6442              ld                      s0,16(sp)
0x800015c0:  64a2              ld                      s1,8(sp)
0x800015c2:  6105              addi                    sp,sp,32
0x800015c4:  8082              ret                     

----------------
IN: 
Priv: 3; Virt: 0
0x80004ca8:  d96d              beqz                    a0,-14                  # 0x80004c9a

----------------
IN: 
Priv: 3; Virt: 0
0x80004c9a:  147d              addi                    s0,s0,-1
0x80004c9c:  c449              beqz                    s0,138                  # 0x80004d26

----------------
IN: 
Priv: 3; Virt: 0
0x80004d26:  6c94              ld                      a3,24(s1)
0x80004d28:  856e              mv                      a0,s11
0x80004d2a:  85ca              mv                      a1,s2
0x80004d2c:  864e              mv                      a2,s3
0x80004d2e:  9682              jalr                    ra,a3,0

----------------
IN: 
Priv: 3; Virt: 0
0x80004d30:  ee0513e3          bnez                    a0,-282                 # 0x80004c16

----------------
IN: 
Priv: 3; Virt: 0
0x80004d34:  4b81              mv                      s7,zero
0x80004d36:  034c2a23          sw                      s4,52(s8)
0x80004d3a:  6502              ld                      a0,0(sp)
0x80004d3c:  02ac0c23          sb                      a0,56(s8)
0x80004d40:  bdd9              j                       -298                    # 0x80004c16

----------------
IN: 
Priv: 3; Virt: 0
0x80004c16:  855e              mv                      a0,s7
0x80004c18:  70a6              ld                      ra,104(sp)
0x80004c1a:  7406              ld                      s0,96(sp)
0x80004c1c:  64e6              ld                      s1,88(sp)
0x80004c1e:  6946              ld                      s2,80(sp)
0x80004c20:  69a6              ld                      s3,72(sp)
0x80004c22:  6a06              ld                      s4,64(sp)
0x80004c24:  7ae2              ld                      s5,56(sp)
0x80004c26:  7b42              ld                      s6,48(sp)
0x80004c28:  7ba2              ld                      s7,40(sp)
0x80004c2a:  7c02              ld                      s8,32(sp)
0x80004c2c:  6ce2              ld                      s9,24(sp)
0x80004c2e:  6d42              ld                      s10,16(sp)
0x80004c30:  6da2              ld                      s11,8(sp)
0x80004c32:  6165              addi                    sp,sp,112
0x80004c34:  8082              ret                     

----------------
IN: 
Priv: 3; Virt: 0
0x80002942:  e131              bnez                    a0,68                   # 0x80002986

----------------
IN: 
Priv: 3; Virt: 0
0x80002944:  f022              sd                      s0,32(sp)
0x80002946:  f902              sd                      zero,176(sp)
0x80002948:  00004517          auipc                   a0,4                    # 0x80006948
0x8000294c:  22850513          addi                    a0,a0,552
0x80002950:  e1aa              sd                      a0,192(sp)
0x80002952:  4505              addi                    a0,zero,1
0x80002954:  e5aa              sd                      a0,200(sp)
0x80002956:  00004517          auipc                   a0,4                    # 0x80006956
0x8000295a:  16a50513          addi                    a0,a0,362
0x8000295e:  e9aa              sd                      a0,208(sp)
0x80002960:  ed82              sd                      zero,216(sp)
0x80002962:  00004597          auipc                   a1,4                    # 0x80006962
0x80002966:  ade58593          addi                    a1,a1,-1314
0x8000296a:  1008              addi                    a0,sp,32
0x8000296c:  1910              addi                    a2,sp,176
0x8000296e:  00002097          auipc                   ra,2                    # 0x8000496e
0x80002972:  032080e7          jalr                    ra,ra,50

----------------
IN: 
Priv: 3; Virt: 0
0x80002976:  e901              bnez                    a0,16                   # 0x80002986

----------------
IN: 
Priv: 3; Virt: 0
0x80002978:  24813083          ld                      ra,584(sp)
0x8000297c:  24013403          ld                      s0,576(sp)
0x80002980:  25010113          addi                    sp,sp,592
0x80002984:  8082              ret                     

----------------
IN: 
Priv: 3; Virt: 0
0x800025d4:  3b1025f3          csrrs                   a1,pmpaddr1,zero

----------------
IN: 
Priv: 3; Virt: 0
0x800025d8:  3b202673          csrrs                   a2,pmpaddr2,zero

----------------
IN: 
Priv: 3; Virt: 0
0x800025dc:  a049              j                       130                     # 0x8000265e

----------------
IN: 
Priv: 3; Virt: 0
0x8000284a:  e932              sd                      a2,144(sp)
0x8000284c:  0016f613          andi                    a2,a3,1
0x80002850:  ed2a              sd                      a0,152(sp)
0x80002852:  c609              beqz                    a2,10                   # 0x8000285c

----------------
IN: 
Priv: 3; Virt: 0
0x8000285c:  f12e              sd                      a1,160(sp)
0x8000285e:  f52a              sd                      a0,168(sp)
0x80002860:  002c              addi                    a1,sp,8
0x80002862:  f02e              sd                      a1,32(sp)
0x80002864:  00003597          auipc                   a1,3                    # 0x80005864
0x80002868:  0e858593          addi                    a1,a1,232
0x8000286c:  f42e              sd                      a1,40(sp)
0x8000286e:  080c              addi                    a1,sp,16
0x80002870:  f82e              sd                      a1,48(sp)
0x80002872:  00003597          auipc                   a1,3                    # 0x80005872
0x80002876:  e4858593          addi                    a1,a1,-440
0x8000287a:  fc2e              sd                      a1,56(sp)
0x8000287c:  0830              addi                    a2,sp,24
0x8000287e:  e0b2              sd                      a2,64(sp)
0x80002880:  e4ae              sd                      a1,72(sp)
0x80002882:  010c              addi                    a1,sp,128
0x80002884:  e8ae              sd                      a1,80(sp)
0x80002886:  fffff597          auipc                   a1,-1                   # 0x80001886
0x8000288a:  c4058593          addi                    a1,a1,-960
0x8000288e:  ecae              sd                      a1,88(sp)
0x80002890:  0910              addi                    a2,sp,144
0x80002892:  f0b2              sd                      a2,96(sp)
0x80002894:  f4ae              sd                      a1,104(sp)
0x80002896:  1110              addi                    a2,sp,160
0x80002898:  f8b2              sd                      a2,112(sp)
0x8000289a:  fcae              sd                      a1,120(sp)
0x8000289c:  4589              addi                    a1,zero,2
0x8000289e:  f92e              sd                      a1,176(sp)
0x800028a0:  e182              sd                      zero,192(sp)
0x800028a2:  e5ae              sd                      a1,200(sp)
0x800028a4:  02551613          slli                    a2,a0,37
0x800028a8:  00860693          addi                    a3,a2,8
0x800028ac:  e9b6              sd                      a3,208(sp)
0x800028ae:  468d              addi                    a3,zero,3
0x800028b0:  0cd10c23          sb                      a3,216(sp)
0x800028b4:  f182              sd                      zero,224(sp)
0x800028b6:  f5ae              sd                      a1,232(sp)
0x800028b8:  fd82              sd                      zero,248(sp)
0x800028ba:  4729              addi                    a4,zero,10
0x800028bc:  e23a              sd                      a4,256(sp)
0x800028be:  00c60793          addi                    a5,a2,12
0x800028c2:  e63e              sd                      a5,264(sp)
0x800028c4:  10d10823          sb                      a3,272(sp)
0x800028c8:  ee2a              sd                      a0,280(sp)
0x800028ca:  f22e              sd                      a1,288(sp)
0x800028cc:  fa02              sd                      zero,304(sp)
0x800028ce:  fe3a              sd                      a4,312(sp)
0x800028d0:  e2be              sd                      a5,320(sp)
0x800028d2:  14d10423          sb                      a3,328(sp)
0x800028d6:  eaae              sd                      a1,336(sp)
0x800028d8:  eeae              sd                      a1,344(sp)
0x800028da:  f6ae              sd                      a1,360(sp)
0x800028dc:  feb2              sd                      a2,376(sp)
0x800028de:  18d10023          sb                      a3,384(sp)
0x800028e2:  e736              sd                      a3,392(sp)
0x800028e4:  eb2e              sd                      a1,400(sp)
0x800028e6:  f32e              sd                      a1,416(sp)
0x800028e8:  fb32              sd                      a2,432(sp)
0x800028ea:  1ad10c23          sb                      a3,440(sp)
0x800028ee:  4511              addi                    a0,zero,4
0x800028f0:  e3aa              sd                      a0,448(sp)
0x800028f2:  e7ae              sd                      a1,456(sp)
0x800028f4:  efae              sd                      a1,472(sp)
0x800028f6:  f7b2              sd                      a2,488(sp)
0x800028f8:  1ed10823          sb                      a3,496(sp)
0x800028fc:  4515              addi                    a0,zero,5
0x800028fe:  ffaa              sd                      a0,504(sp)
0x80002900:  1c20              addi                    s0,sp,568
0x80002902:  20813023          sd                      s0,512(sp)
0x80002906:  1908              addi                    a0,sp,176
0x80002908:  20a13423          sd                      a0,520(sp)
0x8000290c:  4519              addi                    a0,zero,6
0x8000290e:  20a13823          sd                      a0,528(sp)
0x80002912:  00004597          auipc                   a1,4                    # 0x80006912
0x80002916:  1e658593          addi                    a1,a1,486
0x8000291a:  20b13c23          sd                      a1,536(sp)
0x8000291e:  459d              addi                    a1,zero,7
0x80002920:  22b13023          sd                      a1,544(sp)
0x80002924:  100c              addi                    a1,sp,32
0x80002926:  22b13423          sd                      a1,552(sp)
0x8000292a:  22a13823          sd                      a0,560(sp)
0x8000292e:  00004597          auipc                   a1,4                    # 0x8000692e
0x80002932:  b1258593          addi                    a1,a1,-1262
0x80002936:  0408              addi                    a0,sp,512
0x80002938:  0430              addi                    a2,sp,520
0x8000293a:  00002097          auipc                   ra,2                    # 0x8000493a
0x8000293e:  066080e7          jalr                    ra,ra,102

----------------
IN: 
Priv: 3; Virt: 0
0x800025de:  3b2025f3          csrrs                   a1,pmpaddr2,zero

----------------
IN: 
Priv: 3; Virt: 0
0x800025e2:  3b302673          csrrs                   a2,pmpaddr3,zero

----------------
IN: 
Priv: 3; Virt: 0
0x800025e6:  a8a5              j                       120                     # 0x8000265e

----------------
IN: 
Priv: 3; Virt: 0
0x8000282c:  00004517          auipc                   a0,4                    # 0x8000682c
0x80002830:  33c50513          addi                    a0,a0,828
0x80002834:  e12a              sd                      a0,128(sp)
0x80002836:  4505              addi                    a0,zero,1
0x80002838:  0026f713          andi                    a4,a3,2
0x8000283c:  e52a              sd                      a0,136(sp)
0x8000283e:  862e              mv                      a2,a1
0x80002840:  c709              beqz                    a4,10                   # 0x8000284a

----------------
IN: 
Priv: 3; Virt: 0
0x800025e8:  3b3025f3          csrrs                   a1,pmpaddr3,zero

----------------
IN: 
Priv: 3; Virt: 0
0x800025ec:  3b402673          csrrs                   a2,pmpaddr4,zero

----------------
IN: 
Priv: 3; Virt: 0
0x800025f0:  a0bd              j                       110                     # 0x8000265e

----------------
IN: 
Priv: 3; Virt: 0
0x80002524:  4501              mv                      a0,zero
0x80002526:  4c21              addi                    s8,zero,8
0x80002528:  2a0b8563          beqz                    s7,682                  # 0x800027d2

----------------
IN: 
Priv: 3; Virt: 0
0x8000253a:  3a202473          csrrs                   s0,0x3a2,zero

----------------
IN: 
Priv: 3; Virt: 0
0x800027d2:  60a6              ld                      ra,72(sp)
0x800027d4:  6406              ld                      s0,64(sp)
0x800027d6:  74e2              ld                      s1,56(sp)
0x800027d8:  7942              ld                      s2,48(sp)
0x800027da:  79a2              ld                      s3,40(sp)
0x800027dc:  7a02              ld                      s4,32(sp)
0x800027de:  6ae2              ld                      s5,24(sp)
0x800027e0:  6b42              ld                      s6,16(sp)
0x800027e2:  6ba2              ld                      s7,8(sp)
0x800027e4:  6c02              ld                      s8,0(sp)
0x800027e6:  6161              addi                    sp,sp,80
0x800027e8:  8082              ret                     

----------------
IN: 
Priv: 3; Virt: 0
0x8000041e:  00002097          auipc                   ra,2                    # 0x8000241e
0x80000422:  f48080e7          jalr                    ra,ra,-184

----------------
IN: 
Priv: 3; Virt: 0
0x80002366:  1141              addi                    sp,sp,-16
0x80002368:  e406              sd                      ra,8(sp)
0x8000236a:  f1402573          csrrs                   a0,mhartid,zero

----------------
IN: 
Priv: 3; Virt: 0
0x8000236e:  053a              slli                    a0,a0,14
0x80002370:  00006597          auipc                   a1,6                    # 0x80008370
0x80002374:  b1058593          addi                    a1,a1,-1264
0x80002378:  952e              add                     a0,a0,a1
0x8000237a:  4585              addi                    a1,zero,1
0x8000237c:  10b53023          sd                      a1,256(a0)
0x80002380:  10053423          sd                      zero,264(a0)
0x80002384:  6591              lui                     a1,4
0x80002386:  95aa              add                     a1,a1,a0
0x80002388:  00000617          auipc                   a2,0                    # 0x80002388
0x8000238c:  fb660613          addi                    a2,a2,-74
0x80002390:  ffffe717          auipc                   a4,-2                   # 0x80000390
0x80002394:  28e70713          addi                    a4,a4,654
0x80002398:  86aa              mv                      a3,a0
0x8000239a:  00001097          auipc                   ra,1                    # 0x8000339a
0x8000239e:  abe080e7          jalr                    ra,ra,-1346

----------------
IN: 
Priv: 3; Virt: 0
0x80002e58:  fd058793          addi                    a5,a1,-48
0x80002e5c:  9be1              andi                    a5,a5,-8
0x80002e5e:  00a7f463          bleu                    a0,a5,8                 # 0x80002e66

----------------
IN: 
Priv: 3; Virt: 0
0x80002e66:  ef88              sd                      a0,24(a5)
0x80002e68:  f38c              sd                      a1,32(a5)
0x80002e6a:  f790              sd                      a2,40(a5)
0x80002e6c:  e394              sd                      a3,0(a5)
0x80002e6e:  e798              sd                      a4,8(a5)
0x80002e70:  853e              mv                      a0,a5
0x80002e72:  8082              ret                     

----------------
IN: 
Priv: 3; Virt: 0
0x800023a2:  c511              beqz                    a0,12                   # 0x800023ae

----------------
IN: 
Priv: 3; Virt: 0
0x800023a4:  34051573          csrrw                   a0,mscratch,a0

----------------
IN: 
Priv: 3; Virt: 0
0x800023a8:  60a2              ld                      ra,8(sp)
0x800023aa:  0141              addi                    sp,sp,16
0x800023ac:  8082              ret                     

----------------
IN: 
Priv: 3; Virt: 0
0x80000426:  00002097          auipc                   ra,2                    # 0x80002426
0x8000042a:  fb0080e7          jalr                    ra,ra,-80

----------------
IN: 
Priv: 3; Virt: 0
0x800023d6:  f1402573          csrrs                   a0,mhartid,zero

----------------
IN: 
Priv: 3; Virt: 0
0x800023da:  053a              slli                    a0,a0,14
0x800023dc:  00006597          auipc                   a1,6                    # 0x800083dc
0x800023e0:  aa458593          addi                    a1,a1,-1372
0x800023e4:  952e              add                     a0,a0,a1
0x800023e6:  10050513          addi                    a0,a0,256
0x800023ea:  8082              ret                     

----------------
IN: 
Priv: 3; Virt: 0
0x8000042e:  65a2              ld                      a1,8(sp)
0x80000430:  4605              addi                    a2,zero,1
0x80000432:  140536af          lr.d.aq                 a3,(a0)
0x80000436:  00c69563          bne                     a3,a2,10                # 0x80000440

----------------
IN: 
Priv: 3; Virt: 0
0x8000043a:  1885372f          sc.d                    a4,s0,(a0)
0x8000043e:  fb75              bnez                    a4,-12                  # 0x80000432

----------------
IN: 
Priv: 3; Virt: 0
0x80000440:  0ec69563          bne                     a3,a2,234               # 0x8000052a

----------------
IN: 
Priv: 3; Virt: 0
0x80000444:  e510              sd                      a2,8(a0)
0x80000446:  40100613          addi                    a2,zero,1025
0x8000044a:  0656              slli                    a2,a2,21
0x8000044c:  e910              sd                      a2,16(a0)
0x8000044e:  ed0c              sd                      a1,24(a0)
0x80000450:  0310000f          fence                   rw,w
0x80000454:  4589              addi                    a1,zero,2
0x80000456:  e10c              sd                      a1,0(a0)
0x80000458:  a8c9              j                       210                     # 0x8000052a

----------------
IN: 
Priv: 3; Virt: 0
0x8000052a:  000ab583          ld                      a1,0(s5)
0x8000052e:  ddf5              beqz                    a1,-4                   # 0x8000052a

----------------
IN: 
Priv: 3; Virt: 0
0x80000530:  f1402573          csrrs                   a0,mhartid,zero

----------------
IN: 
Priv: 3; Virt: 0
0x80000534:  6685              lui                     a3,1
0x80000536:  ffe6861b          addiw                   a2,a3,-2
0x8000053a:  06a66963          bgtu                    a0,a2,114               # 0x800005ac

----------------
IN: 
Priv: 3; Virt: 0
0x8000053e:  050a              slli                    a0,a0,2
0x80000540:  952e              add                     a0,a0,a1
0x80000542:  00052023          sw                      zero,0(a0)
0x80000546:  f1402573          csrrs                   a0,mhartid,zero

----------------
IN: 
Priv: 3; Virt: 0
0x80000542:  00052023          sw                      zero,0(a0)

----------------
IN: 
Priv: 3; Virt: 0
0x80000546:  f1402573          csrrs                   a0,mhartid,zero

----------------
IN: 
Priv: 3; Virt: 0
0x8000054a:  fff6861b          addiw                   a2,a3,-1
0x8000054e:  06c57a63          bleu                    a2,a0,116               # 0x800005c2

----------------
IN: 
Priv: 3; Virt: 0
0x80000552:  050e              slli                    a0,a0,3
0x80000554:  952e              add                     a0,a0,a1
0x80000556:  6591              lui                     a1,4
0x80000558:  952e              add                     a0,a0,a1
0x8000055a:  55fd              addi                    a1,zero,-1
0x8000055c:  e10c              sd                      a1,0(a0)
0x8000055e:  30359073          csrrw                   zero,mideleg,a1

----------------
IN: 
Priv: 3; Virt: 0
0x8000055c:  e10c              sd                      a1,0(a0)

----------------
IN: 
Priv: 3; Virt: 0
0x8000055e:  30359073          csrrw                   zero,mideleg,a1

----------------
IN: 
Priv: 3; Virt: 0
0x80000562:  30259073          csrrw                   zero,medeleg,a1

----------------
IN: 
Priv: 3; Virt: 0
0x80000566:  30659073          csrrw                   zero,mcounteren,a1

----------------
IN: 
Priv: 3; Virt: 0
0x8000056a:  20000513          addi                    a0,zero,512
0x8000056e:  30253073          csrrc                   zero,medeleg,a0

----------------
IN: 
Priv: 3; Virt: 0
0x80000572:  6505              lui                     a0,1
0x80000574:  8005051b          addiw                   a0,a0,-2048
0x80000578:  30253073          csrrc                   zero,medeleg,a0

----------------
IN: 
Priv: 3; Virt: 0
0x8000057c:  00001517          auipc                   a0,1                    # 0x8000157c
0x80000580:  11450513          addi                    a0,a0,276
0x80000584:  0505              addi                    a0,a0,1
0x80000586:  30551073          csrrw                   zero,mtvec,a0

----------------
IN: 
Priv: 3; Virt: 0
0x8000058a:  35813083          ld                      ra,856(sp)
0x8000058e:  35013403          ld                      s0,848(sp)
0x80000592:  34813483          ld                      s1,840(sp)
0x80000596:  34013903          ld                      s2,832(sp)
0x8000059a:  33813983          ld                      s3,824(sp)
0x8000059e:  33013a03          ld                      s4,816(sp)
0x800005a2:  32813a83          ld                      s5,808(sp)
0x800005a6:  36010113          addi                    sp,sp,864
0x800005aa:  8082              ret                     

----------------
IN: 
Priv: 3; Virt: 0
0x80000010:  6800106f          j                       5760                    # 0x80001690

----------------
IN: 
Priv: 3; Virt: 0
0x80001690:  6ec0106f          j                       5868                    # 0x80002d7c

----------------
IN: 
Priv: 3; Virt: 0
0x80002d7c:  34011173          csrrw                   sp,mscratch,sp

----------------
IN: 
Priv: 3; Virt: 0
0x80002d80:  e82a              sd                      a0,16(sp)
0x80002d82:  6502              ld                      a0,0(sp)
0x80002d84:  00153023          sd                      ra,0(a0)
0x80002d88:  00553423          sd                      t0,8(a0)
0x80002d8c:  00653823          sd                      t1,16(a0)
0x80002d90:  00753c23          sd                      t2,24(a0)
0x80002d94:  03c53023          sd                      t3,32(a0)
0x80002d98:  03d53423          sd                      t4,40(a0)
0x80002d9c:  03e53823          sd                      t5,48(a0)
0x80002da0:  03f53c23          sd                      t6,56(a0)
0x80002da4:  850a              mv                      a0,sp
0x80002da6:  60a2              ld                      ra,8(sp)
0x80002da8:  9082              jalr                    ra,ra,0

----------------
IN: 
Priv: 3; Virt: 0
0x8000061e:  df010113          addi                    sp,sp,-528
0x80000622:  20113423          sd                      ra,520(sp)
0x80000626:  20813023          sd                      s0,512(sp)
0x8000062a:  ffa6              sd                      s1,504(sp)
0x8000062c:  fbca              sd                      s2,496(sp)
0x8000062e:  f7ce              sd                      s3,488(sp)
0x80000630:  f3d2              sd                      s4,480(sp)
0x80000632:  efd6              sd                      s5,472(sp)
0x80000634:  ebda              sd                      s6,464(sp)
0x80000636:  e7de              sd                      s7,456(sp)
0x80000638:  e3e2              sd                      s8,448(sp)
0x8000063a:  ff66              sd                      s9,440(sp)
0x8000063c:  fb6a              sd                      s10,432(sp)
0x8000063e:  f76e              sd                      s11,424(sp)
0x80000640:  8d46              mv                      s10,a7
0x80000642:  8cc2              mv                      s9,a6
0x80000644:  f03e              sd                      a5,32(sp)
0x80000646:  ec3a              sd                      a4,24(sp)
0x80000648:  e836              sd                      a3,16(sp)
0x8000064a:  8c32              mv                      s8,a2
0x8000064c:  e42e              sd                      a1,8(sp)
0x8000064e:  f82a              sd                      a0,48(sp)
0x80000650:  4409              addi                    s0,zero,2
0x80000652:  4a05              addi                    s4,zero,1
0x80000654:  4aa1              addi                    s5,zero,8
0x80000656:  00028517          auipc                   a0,40                   # 0x80028656
0x8000065a:  97250513          addi                    a0,a0,-1678
0x8000065e:  f42a              sd                      a0,40(sp)
0x80000660:  6505              lui                     a0,1
0x80000662:  fff50b1b          addiw                   s6,a0,-1
0x80000666:  4925              addi                    s2,zero,9
0x80000668:  00485537          lui                     a0,1157
0x8000066c:  34d50b9b          addiw                   s7,a0,845
0x80000670:  59fd              addi                    s3,zero,-1
0x80000672:  00002097          auipc                   ra,2                    # 0x80002672
0x80000676:  d64080e7          jalr                    ra,ra,-668

----------------
IN: 
Priv: 3; Virt: 0
0x8000067a:  140535af          lr.d.aq                 a1,(a0)
0x8000067e:  00859563          bne                     a1,s0,10                # 0x80000688

----------------
IN: 
Priv: 3; Virt: 0
0x80000682:  1a05362f          sc.d.rl                 a2,zero,(a0)
0x80000686:  fa75              bnez                    a2,-12                  # 0x8000067a

----------------
IN: 
Priv: 3; Virt: 0
0x80000688:  ffe58613          addi                    a2,a1,-2
0x8000068c:  00163613          seqz                    a2,a2
0x80000690:  02858363          beq                     a1,s0,38                # 0x800006b6

----------------
IN: 
Priv: 3; Virt: 0
0x800006b6:  6514              ld                      a3,8(a0)
0x800006b8:  690c              ld                      a1,16(a0)
0x800006ba:  6d04              ld                      s1,24(a0)
0x800006bc:  00053423          sd                      zero,8(a0)
0x800006c0:  6c068d63          beqz                    a3,1754                 # 0x80000d9a

----------------
IN: 
Priv: 3; Virt: 0
0x800006c4:  00167513          andi                    a0,a2,1
0x800006c8:  14051763          bnez                    a0,334                  # 0x80000816

----------------
IN: 
Priv: 3; Virt: 0
0x80000816:  30002573          csrrs                   a0,mstatus,zero

----------------
IN: 
Priv: 3; Virt: 0
0x8000081a:  7679              lui                     a2,-2
0x8000081c:  77f6061b          addiw                   a2,a2,1919
0x80000820:  8d71              and                     a0,a0,a2
0x80000822:  6605              lui                     a2,1
0x80000824:  8806061b          addiw                   a2,a2,-1920
0x80000828:  8d51              or                      a0,a0,a2
0x8000082a:  30051073          csrrw                   zero,mstatus,a0

----------------
IN: 
Priv: 3; Virt: 0
0x8000082e:  08800513          addi                    a0,zero,136
0x80000832:  30451073          csrrw                   zero,mie,a0

----------------
IN: 
Priv: 3; Virt: 0
0x80000836:  4509              addi                    a0,zero,2
0x80000838:  10053073          csrrc                   zero,sstatus,a0

----------------
IN: 
Priv: 3; Virt: 0
0x8000083c:  18001073          csrrw                   zero,satp,zero

----------------
IN: 
Priv: 3; Virt: 0
0x80000840:  f1402573          csrrs                   a0,mhartid,zero

----------------
IN: 
Priv: 3; Virt: 0
0x80000844:  76c2              ld                      a3,48(sp)
0x80000846:  6290              ld                      a2,0(a3)
0x80000848:  e228              sd                      a0,64(a2)
0x8000084a:  6288              ld                      a0,0(a3)
0x8000084c:  e524              sd                      s1,72(a0)
0x8000084e:  6288              ld                      a0,0(a3)
0x80000850:  fd6c              sd                      a1,248(a0)
0x80000852:  6288              ld                      a0,0(a3)
0x80000854:  716c              ld                      a1,224(a0)
0x80000856:  7570              ld                      a2,232(a0)
0x80000858:  7974              ld                      a3,240(a0)
0x8000085a:  7d68              ld                      a0,248(a0)
0x8000085c:  81ae              mv                      gp,a1
0x8000085e:  8232              mv                      tp,a2
0x80000860:  34069073          csrrw                   zero,mscratch,a3

----------------
IN: 
Priv: 3; Virt: 0
0x80000864:  34151073          csrrw                   zero,mepc,a0

----------------
IN: 
Priv: 3; Virt: 0
0x80000868:  4501              mv                      a0,zero
0x8000086a:  a685              j                       864                     # 0x80000bca

----------------
IN: 
Priv: 3; Virt: 0
0x80000bca:  20813083          ld                      ra,520(sp)
0x80000bce:  20013403          ld                      s0,512(sp)
0x80000bd2:  74fe              ld                      s1,504(sp)
0x80000bd4:  795e              ld                      s2,496(sp)
0x80000bd6:  79be              ld                      s3,488(sp)
0x80000bd8:  7a1e              ld                      s4,480(sp)
0x80000bda:  6afe              ld                      s5,472(sp)
0x80000bdc:  6b5e              ld                      s6,464(sp)
0x80000bde:  6bbe              ld                      s7,456(sp)
0x80000be0:  6c1e              ld                      s8,448(sp)
0x80000be2:  7cfa              ld                      s9,440(sp)
0x80000be4:  7d5a              ld                      s10,432(sp)
0x80000be6:  7dba              ld                      s11,424(sp)
0x80000be8:  21010113          addi                    sp,sp,528
0x80000bec:  8082              ret                     

----------------
IN: 
Priv: 3; Virt: 0
0x80002daa:  6582              ld                      a1,0(sp)
0x80002dac:  cd59              beqz                    a0,158                  # 0x80002e4a

----------------
IN: 
Priv: 3; Virt: 0
0x80002e4a:  61a8              ld                      a0,64(a1)
0x80002e4c:  65ac              ld                      a1,72(a1)
0x80002e4e:  34011173          csrrw                   sp,mscratch,sp

----------------
IN: 
Priv: 3; Virt: 0
0x80002e52:  30200073          mret                    

----------------
IN: 
Priv: 1; Virt: 0
0x80200000:  0001a117          auipc                   sp,26                   # 0x8021a000
0x80200004:  00010113          mv                      sp,sp
0x80200008:  000802b7          lui                     t0,128
0x8020000c:  9116              add                     sp,sp,t0
0x8020000e:  547d              addi                    s0,zero,-1
0x80200010:  141a              slli                    s0,s0,38
0x80200012:  00816133          or                      sp,sp,s0
0x80200016:  0000f297          auipc                   t0,15                   # 0x8020f016
0x8020001a:  fea28293          addi                    t0,t0,-22
0x8020001e:  00c2d293          srli                    t0,t0,12
0x80200022:  537d              addi                    t1,zero,-1
0x80200024:  137e              slli                    t1,t1,63
0x80200026:  0062e2b3          or                      t0,t0,t1
0x8020002a:  18029073          csrrw                   zero,satp,t0

----------------
IN: 
Priv: 1; Virt: 0
0x8020002e:  12000073          sfence.vma              zero,zero
0x80200032:  00003617          auipc                   a2,3                    # 0x80203032
0x80200036:  98660613          addi                    a2,a2,-1658
0x8020003a:  8e41              or                      a2,a2,s0
0x8020003c:  9602              jalr                    ra,a2,0

----------------
IN: 
Priv: 1; Virt: 0
0xffffffc0802029b8:  7149              addi                    sp,sp,-368
0xffffffc0802029ba:  f686              sd                      ra,360(sp)
0xffffffc0802029bc:  f2a2              sd                      s0,352(sp)
0xffffffc0802029be:  eea6              sd                      s1,344(sp)
0xffffffc0802029c0:  eaca              sd                      s2,336(sp)
0xffffffc0802029c2:  e6ce              sd                      s3,328(sp)
0xffffffc0802029c4:  1a80              addi                    s0,sp,368
0xffffffc0802029c6:  00097617          auipc                   a2,151                  # 0xffffffc0802999c6
0xffffffc0802029ca:  63a60693          addi                    a3,a2,1594
0xffffffc0802029ce:  00098617          auipc                   a2,152                  # 0xffffffc08029a9ce
0xffffffc0802029d2:  8da60613          addi                    a2,a2,-1830
0xffffffc0802029d6:  8e15              sub                     a2,a2,a3
0xffffffc0802029d8:  00465713          srli                    a4,a2,4
0xffffffc0802029dc:  892e              mv                      s2,a1
0xffffffc0802029de:  89aa              mv                      s3,a0
0xffffffc0802029e0:  cb01              beqz                    a4,16                   # 0xffffffc0802029f0

----------------
IN: 
Priv: 1; Virt: 0
0xffffffc0802029e2:  9a41              andi                    a2,a2,-16
0xffffffc0802029e4:  8536              mv                      a0,a3
0xffffffc0802029e6:  4581              mv                      a1,zero
0xffffffc0802029e8:  00005097          auipc                   ra,5                    # 0xffffffc0802079e8
0xffffffc0802029ec:  744080e7          jalr                    ra,ra,1860

----------------
IN: 
Priv: 1; Virt: 0
0xffffffc08020812c:  00000317          auipc                   t1,0                    # 0xffffffc08020812c
0xffffffc080208130:  f7a30067          jalr                    zero,t1,-134

----------------
IN: 
Priv: 1; Virt: 0
0xffffffc0802080a6:  46c1              addi                    a3,zero,16
0xffffffc0802080a8:  04d66963          bgtu                    a3,a2,82                # 0xffffffc0802080fa

----------------
IN: 
Priv: 1; Virt: 0
0xffffffc0802080ac:  40a006bb          negw                    a3,a0
0xffffffc0802080b0:  8a9d              andi                    a3,a3,7
0xffffffc0802080b2:  00d50733          add                     a4,a0,a3
0xffffffc0802080b6:  c699              beqz                    a3,14                   # 0xffffffc0802080c4

----------------
IN: 
Priv: 1; Virt: 0
0xffffffc0802080c4:  40d608b3          sub                     a7,a2,a3
0xffffffc0802080c8:  ff88f793          andi                    a5,a7,-8
0xffffffc0802080cc:  00f706b3          add                     a3,a4,a5
0xffffffc0802080d0:  02f05163          blez                    a5,34                   # 0xffffffc0802080f2

----------------
IN: 
Priv: 1; Virt: 0
0xffffffc0802080d4:  0ff5f813          andi                    a6,a1,255
0xffffffc0802080d8:  010107b7          lui                     a5,4112
0xffffffc0802080dc:  1017861b          addiw                   a2,a5,257
0xffffffc0802080e0:  02061793          slli                    a5,a2,32
0xffffffc0802080e4:  963e              add                     a2,a2,a5
0xffffffc0802080e6:  02c807b3          mul                     a5,a6,a2
0xffffffc0802080ea:  e31c              sd                      a5,0(a4)
0xffffffc0802080ec:  0721              addi                    a4,a4,8
0xffffffc0802080ee:  fed76ee3          bgtu                    a3,a4,-4                # 0xffffffc0802080ea

----------------
IN: 
Priv: 1; Virt: 0
0xffffffc0802080ea:  e31c              sd                      a5,0(a4)
0xffffffc0802080ec:  0721              addi                    a4,a4,8
0xffffffc0802080ee:  fed76ee3          bgtu                    a3,a4,-4                # 0xffffffc0802080ea

----------------
IN: 
Priv: 1; Virt: 0
0xffffffc0802080f2:  0078f613          andi                    a2,a7,7
0xffffffc0802080f6:  e601              bnez                    a2,8                    # 0xffffffc0802080fe

----------------
IN: 
Priv: 1; Virt: 0
0xffffffc0802080f8:  a809              j                       18                      # 0xffffffc08020810a

----------------
IN: 
Priv: 1; Virt: 0
0xffffffc08020810a:  8082              ret                     

----------------
IN: 
Priv: 1; Virt: 0
0xffffffc0802029f0:  4511              addi                    a0,zero,4
0xffffffc0802029f2:  00001097          auipc                   ra,1                    # 0xffffffc0802039f2
0xffffffc0802029f6:  cf8080e7          jalr                    ra,ra,-776

----------------
IN: 
Priv: 1; Virt: 0
0xffffffc0802036ea:  7139              addi                    sp,sp,-64
0xffffffc0802036ec:  fc06              sd                      ra,56(sp)
0xffffffc0802036ee:  f822              sd                      s0,48(sp)
0xffffffc0802036f0:  f426              sd                      s1,40(sp)
0xffffffc0802036f2:  f04a              sd                      s2,32(sp)
0xffffffc0802036f4:  ec4e              sd                      s3,24(sp)
0xffffffc0802036f6:  e852              sd                      s4,16(sp)
0xffffffc0802036f8:  e456              sd                      s5,8(sp)
0xffffffc0802036fa:  e05a              sd                      s6,0(sp)
0xffffffc0802036fc:  0080              addi                    s0,sp,64
0xffffffc0802036fe:  000005b7          lui                     a1,0
0xffffffc080203702:  00858593          addi                    a1,a1,8
0xffffffc080203706:  00000637          lui                     a2,0
0xffffffc08020370a:  00060613          mv                      a2,a2
0xffffffc08020370e:  000006b7          lui                     a3,0
0xffffffc080203712:  00868693          addi                    a3,a3,8
0xffffffc080203716:  000006b7          lui                     a3,0
0xffffffc08020371a:  00068693          mv                      a3,a3
0xffffffc08020371e:  4689              addi                    a3,zero,2
0xffffffc080203720:  04d56763          bgtu                    a3,a0,78                # 0xffffffc08020376e

----------------
IN: 
Priv: 1; Virt: 0
0xffffffc080203724:  89aa              mv                      s3,a0
0xffffffc080203726:  40c58933          sub                     s2,a1,a2
0xffffffc08020372a:  4505              addi                    a0,zero,1
0xffffffc08020372c:  6a05              lui                     s4,1
0xffffffc08020372e:  3a7d              addiw                   s4,s4,-1
0xffffffc080203730:  7afd              lui                     s5,-1
0xffffffc080203732:  00098597          auipc                   a1,152                  # 0xffffffc08029b732
0xffffffc080203736:  8ce58b13          addi                    s6,a1,-1842
0xffffffc08020373a:  000005b7          lui                     a1,0
0xffffffc08020373e:  00858593          addi                    a1,a1,8
0xffffffc080203742:  00000637          lui                     a2,0
0xffffffc080203746:  00060613          mv                      a2,a2
0xffffffc08020374a:  00150493          addi                    s1,a0,1
0xffffffc08020374e:  8d91              sub                     a1,a1,a2
0xffffffc080203750:  95d2              add                     a1,a1,s4
0xffffffc080203752:  0155f5b3          and                     a1,a1,s5
0xffffffc080203756:  02a58533          mul                     a0,a1,a0
0xffffffc08020375a:  955a              add                     a0,a0,s6
0xffffffc08020375c:  85da              mv                      a1,s6
0xffffffc08020375e:  864a              mv                      a2,s2
0xffffffc080203760:  00005097          auipc                   ra,5                    # 0xffffffc080208760
0xffffffc080203764:  9d4080e7          jalr                    ra,ra,-1580

----------------
IN: 
Priv: 1; Virt: 0
0xffffffc080208134:  00000317          auipc                   t1,0                    # 0xffffffc080208134
0xffffffc080208138:  ec230067          jalr                    zero,t1,-318

----------------
IN: 
Priv: 1; Virt: 0
0xffffffc080207ff6:  46c1              addi                    a3,zero,16
0xffffffc080207ff8:  06d66b63          bgtu                    a3,a2,118               # 0xffffffc08020806e

----------------
IN: 
Priv: 1; Virt: 0
0xffffffc08020806e:  86aa              mv                      a3,a0
0xffffffc080208070:  e20d              bnez                    a2,34                   # 0xffffffc080208092

----------------
IN: 
Priv: 1; Virt: 0
0xffffffc080208092:  9636              add                     a2,a2,a3
0xffffffc080208094:  0005c703          lbu                     a4,0(a1)
0xffffffc080208098:  00e68023          sb                      a4,0(a3)
0xffffffc08020809c:  0685              addi                    a3,a3,1
0xffffffc08020809e:  0585              addi                    a1,a1,1
0xffffffc0802080a0:  fec6eae3          bgtu                    a2,a3,-12               # 0xffffffc080208094

----------------
IN: 
Priv: 1; Virt: 0
0xffffffc080208094:  0005c703          lbu                     a4,0(a1)
0xffffffc080208098:  00e68023          sb                      a4,0(a3)
0xffffffc08020809c:  0685              addi                    a3,a3,1
0xffffffc08020809e:  0585              addi                    a1,a1,1
0xffffffc0802080a0:  fec6eae3          bgtu                    a2,a3,-12               # 0xffffffc080208094

----------------
IN: 
Priv: 1; Virt: 0
0xffffffc0802080a4:  8082              ret                     

----------------
IN: 
Priv: 1; Virt: 0
0xffffffc080203768:  8526              mv                      a0,s1
0xffffffc08020376a:  fc9998e3          bne                     s3,s1,-48               # 0xffffffc08020373a

----------------
IN: 
Priv: 1; Virt: 0
0xffffffc08020373a:  000005b7          lui                     a1,0
0xffffffc08020373e:  00858593          addi                    a1,a1,8
0xffffffc080203742:  00000637          lui                     a2,0
0xffffffc080203746:  00060613          mv                      a2,a2
0xffffffc08020374a:  00150493          addi                    s1,a0,1
0xffffffc08020374e:  8d91              sub                     a1,a1,a2
0xffffffc080203750:  95d2              add                     a1,a1,s4
0xffffffc080203752:  0155f5b3          and                     a1,a1,s5
0xffffffc080203756:  02a58533          mul                     a0,a1,a0
0xffffffc08020375a:  955a              add                     a0,a0,s6
0xffffffc08020375c:  85da              mv                      a1,s6
0xffffffc08020375e:  864a              mv                      a2,s2
0xffffffc080203760:  00005097          auipc                   ra,5                    # 0xffffffc080208760
0xffffffc080203764:  9d4080e7          jalr                    ra,ra,-1580

----------------
IN: 
Priv: 1; Virt: 0
0xffffffc08020376e:  70e2              ld                      ra,56(sp)
0xffffffc080203770:  7442              ld                      s0,48(sp)
0xffffffc080203772:  74a2              ld                      s1,40(sp)
0xffffffc080203774:  7902              ld                      s2,32(sp)
0xffffffc080203776:  69e2              ld                      s3,24(sp)
0xffffffc080203778:  6a42              ld                      s4,16(sp)
0xffffffc08020377a:  6aa2              ld                      s5,8(sp)
0xffffffc08020377c:  6b02              ld                      s6,0(sp)
0xffffffc08020377e:  6121              addi                    sp,sp,64
0xffffffc080203780:  8082              ret                     

----------------
IN: 
Priv: 1; Virt: 0
0xffffffc0802029fa:  00000537          lui                     a0,0
0xffffffc0802029fe:  00850513          addi                    a0,a0,8
0xffffffc080202a02:  000005b7          lui                     a1,0
0xffffffc080202a06:  00058593          mv                      a1,a1
0xffffffc080202a0a:  8d0d              sub                     a0,a0,a1
0xffffffc080202a0c:  6585              lui                     a1,1
0xffffffc080202a0e:  35fd              addiw                   a1,a1,-1
0xffffffc080202a10:  952e              add                     a0,a0,a1
0xffffffc080202a12:  75fd              lui                     a1,-1
0xffffffc080202a14:  8d6d              and                     a0,a0,a1
0xffffffc080202a16:  03350533          mul                     a0,a0,s3
0xffffffc080202a1a:  00098597          auipc                   a1,152                  # 0xffffffc08029aa1a
0xffffffc080202a1e:  5e658593          addi                    a1,a1,1510
0xffffffc080202a22:  952e              add                     a0,a0,a1
0xffffffc080202a24:  81aa              mv                      gp,a0
0xffffffc080202a26:  00000537          lui                     a0,0
0xffffffc080202a2a:  950e              add                     a0,a0,gp
0xffffffc080202a2c:  01353023          sd                      s3,0(a0)
0xffffffc080202a30:  00000097          auipc                   ra,0                    # 0xffffffc080202a30
0xffffffc080202a34:  d06080e7          jalr                    ra,ra,-762

----------------
IN: 
Priv: 1; Virt: 0
0xffffffc080202736:  1141              addi                    sp,sp,-16
0xffffffc080202738:  e406              sd                      ra,8(sp)
0xffffffc08020273a:  e022              sd                      s0,0(sp)
0xffffffc08020273c:  0800              addi                    s0,sp,16
0xffffffc08020273e:  00017517          auipc                   a0,23                   # 0xffffffc08021973e
0xffffffc080202742:  8c250513          addi                    a0,a0,-1854
0xffffffc080202746:  040005b7          lui                     a1,16384
0xffffffc08020274a:  35fd              addiw                   a1,a1,-1
0xffffffc08020274c:  05b2              slli                    a1,a1,12
0xffffffc08020274e:  8d6d              and                     a0,a0,a1
0xffffffc080202750:  8109              srli                    a0,a0,2
0xffffffc080202752:  0fb50513          addi                    a0,a0,251
0xffffffc080202756:  0000e617          auipc                   a2,14                   # 0xffffffc080210756
0xffffffc08020275a:  8aa60613          addi                    a2,a2,-1878
0xffffffc08020275e:  e208              sd                      a0,0(a2)
0xffffffc080202760:  8df1              and                     a1,a1,a2
0xffffffc080202762:  8189              srli                    a1,a1,2
0xffffffc080202764:  0585              addi                    a1,a1,1
0xffffffc080202766:  0000f517          auipc                   a0,15                   # 0xffffffc080211766
0xffffffc08020276a:  88b53d23          sd                      a1,-1894(a0)
0xffffffc08020276e:  60a2              ld                      ra,8(sp)
0xffffffc080202770:  6402              ld                      s0,0(sp)
0xffffffc080202772:  0141              addi                    sp,sp,16
0xffffffc080202774:  8082              ret                     

----------------
IN: 
Priv: 1; Virt: 0
0xffffffc080202a38:  00001517          auipc                   a0,1                    # 0xffffffc080203a38
0xffffffc080202a3c:  ab850513          addi                    a0,a0,-1352
0xffffffc080202a40:  10551073          csrrw                   zero,stvec,a0

----------------
IN: 
Priv: 1; Virt: 0
0xffffffc080202a44:  02000513          addi                    a0,zero,32
0xffffffc080202a48:  10452073          csrrs                   zero,sie,a0

----------------
IN: 
Priv: 1; Virt: 0
0xffffffc080202a4c:  c0102573          rdtime                  a0

----------------
IN: 
Priv: 1; Virt: 0
0xffffffc080202a50:  65fd              lui                     a1,31
0xffffffc080202a52:  8485859b          addiw                   a1,a1,-1976
0xffffffc080202a56:  952e              add                     a0,a0,a1
0xffffffc080202a58:  544955b7          lui                     a1,345237
0xffffffc080202a5c:  d455889b          addiw                   a7,a1,-699
0xffffffc080202a60:  4801              mv                      a6,zero
0xffffffc080202a62:  00000073          ecall                   

riscv_cpu_do_interrupt: hart:0, async:0, cause:0000000000000009, epc:0xffffffc080202a62, tval:0x0000000000000000, desc=supervisor_ecall
----------------
IN: 
Priv: 3; Virt: 0
0x80000694:  03359863          bne                     a1,s3,48                # 0x800006c4

----------------
IN: 
Priv: 3; Virt: 0
0x800006cc:  03459163          bne                     a1,s4,34                # 0x800006ee

----------------
IN: 
Priv: 3; Virt: 0
0x800006ee:  34202573          csrrs                   a0,mcause,zero

----------------
IN: 
Priv: 3; Virt: 0
0x800006f2:  6c054363          bltz                    a0,1734                 # 0x80000db8

----------------
IN: 
Priv: 3; Virt: 0
0x800006f6:  67251063          bne                     a0,s2,1632              # 0x80000d56

----------------
IN: 
Priv: 3; Virt: 0
0x800006fa:  7542              ld                      a0,48(sp)
0x800006fc:  01053d83          ld                      s11,16(a0)
0x80000700:  017d1d63          bne                     s10,s7,26               # 0x8000071a

----------------
IN: 
Priv: 3; Virt: 0
0x8000071a:  00735537          lui                     a0,1845
0x8000071e:  0485059b          addiw                   a1,a0,72
0x80000722:  0ba5c163          bgt                     s10,a1,162              # 0x800007c4

----------------
IN: 
Priv: 3; Virt: 0
0x800007c4:  0495051b          addiw                   a0,a0,73
0x800007c8:  12ad0a63          beq                     s10,a0,308              # 0x800008fc

----------------
IN: 
Priv: 3; Virt: 0
0x800007cc:  53525537          lui                     a0,341285
0x800007d0:  3545051b          addiw                   a0,a0,852
0x800007d4:  2ead0363          beq                     s10,a0,742              # 0x80000aba

----------------
IN: 
Priv: 3; Virt: 0
0x800007d8:  54495537          lui                     a0,345237
0x800007dc:  d455051b          addiw                   a0,a0,-699
0x800007e0:  30ad1263          bne                     s10,a0,772              # 0x80000ae4

----------------
IN: 
Priv: 3; Virt: 0
0x800007e4:  5579              addi                    a0,zero,-2
0x800007e6:  3a0c9b63          bnez                    s9,950                  # 0x80000b9c

----------------
IN: 
Priv: 3; Virt: 0
0x800007ea:  02000513          addi                    a0,zero,32
0x800007ee:  34453073          csrrc                   zero,mip,a0

----------------
IN: 
Priv: 3; Virt: 0
0x800007f2:  7522              ld                      a0,40(sp)
0x800007f4:  6110              ld                      a2,0(a0)
0x800007f6:  f14026f3          csrrs                   a3,mhartid,zero

----------------
IN: 
Priv: 3; Virt: 0
0x800007fa:  6505              lui                     a0,1
0x800007fc:  fff5059b          addiw                   a1,a0,-1
0x80000800:  56b6f963          bleu                    a1,a3,1394              # 0x80000d72

----------------
IN: 
Priv: 3; Virt: 0
0x80000804:  4581              mv                      a1,zero
0x80000806:  4501              mv                      a0,zero
0x80000808:  068e              slli                    a3,a3,3
0x8000080a:  9636              add                     a2,a2,a3
0x8000080c:  6691              lui                     a3,4
0x8000080e:  9636              add                     a2,a2,a3
0x80000810:  01b63023          sd                      s11,0(a2)
0x80000814:  a669              j                       906                     # 0x80000b9e

----------------
IN: 
Priv: 3; Virt: 0
0x80000810:  01b63023          sd                      s11,0(a2)

----------------
IN: 
Priv: 3; Virt: 0
0x80000814:  a669              j                       906                     # 0x80000b9e

----------------
IN: 
Priv: 3; Virt: 0
0x80000b9e:  7642              ld                      a2,48(sp)
0x80000ba0:  6210              ld                      a2,0(a2)
0x80000ba2:  e228              sd                      a0,64(a2)
0x80000ba4:  e62c              sd                      a1,72(a2)
0x80000ba6:  05863823          sd                      s8,80(a2)
0x80000baa:  6542              ld                      a0,16(sp)
0x80000bac:  ee28              sd                      a0,88(a2)
0x80000bae:  6562              ld                      a0,24(sp)
0x80000bb0:  f228              sd                      a0,96(a2)
0x80000bb2:  7502              ld                      a0,32(sp)
0x80000bb4:  f628              sd                      a0,104(a2)
0x80000bb6:  07963823          sd                      s9,112(a2)
0x80000bba:  07a63c23          sd                      s10,120(a2)
0x80000bbe:  34102573          csrrs                   a0,mepc,zero

----------------
IN: 
Priv: 3; Virt: 0
0x80000bc2:  0511              addi                    a0,a0,4
0x80000bc4:  34151073          csrrw                   zero,mepc,a0

----------------
IN: 
Priv: 3; Virt: 0
0x80000bc8:  4509              addi                    a0,zero,2
0x80000bca:  20813083          ld                      ra,520(sp)
0x80000bce:  20013403          ld                      s0,512(sp)
0x80000bd2:  74fe              ld                      s1,504(sp)
0x80000bd4:  795e              ld                      s2,496(sp)
0x80000bd6:  79be              ld                      s3,488(sp)
0x80000bd8:  7a1e              ld                      s4,480(sp)
0x80000bda:  6afe              ld                      s5,472(sp)
0x80000bdc:  6b5e              ld                      s6,464(sp)
0x80000bde:  6bbe              ld                      s7,456(sp)
0x80000be0:  6c1e              ld                      s8,448(sp)
0x80000be2:  7cfa              ld                      s9,440(sp)
0x80000be4:  7d5a              ld                      s10,432(sp)
0x80000be6:  7dba              ld                      s11,424(sp)
0x80000be8:  21010113          addi                    sp,sp,528
0x80000bec:  8082              ret                     

----------------
IN: 
Priv: 3; Virt: 0
0x80002dae:  157d              addi                    a0,a0,-1
0x80002db0:  c549              beqz                    a0,138                  # 0x80002e3a

----------------
IN: 
Priv: 3; Virt: 0
0x80002db2:  157d              addi                    a0,a0,-1
0x80002db4:  c13d              beqz                    a0,102                  # 0x80002e1a

----------------
IN: 
Priv: 3; Virt: 0
0x80002e1a:  0005b083          ld                      ra,0(a1)
0x80002e1e:  0085b283          ld                      t0,8(a1)
0x80002e22:  0105b303          ld                      t1,16(a1)
0x80002e26:  0185b383          ld                      t2,24(a1)
0x80002e2a:  0205be03          ld                      t3,32(a1)
0x80002e2e:  0285be83          ld                      t4,40(a1)
0x80002e32:  0305bf03          ld                      t5,48(a1)
0x80002e36:  0385bf83          ld                      t6,56(a1)
0x80002e3a:  69b0              ld                      a2,80(a1)
0x80002e3c:  6db4              ld                      a3,88(a1)
0x80002e3e:  71b8              ld                      a4,96(a1)
0x80002e40:  75bc              ld                      a5,104(a1)
0x80002e42:  0705b803          ld                      a6,112(a1)
0x80002e46:  0785b883          ld                      a7,120(a1)
0x80002e4a:  61a8              ld                      a0,64(a1)
0x80002e4c:  65ac              ld                      a1,72(a1)
0x80002e4e:  34011173          csrrw                   sp,mscratch,sp

----------------
IN: 
Priv: 1; Virt: 0
0xffffffc080202a66:  00098517          auipc                   a0,152                  # 0xffffffc08029aa66
0xffffffc080202a6a:  83a50513          addi                    a0,a0,-1990
0xffffffc080202a6e:  6108              ld                      a0,0(a0)
0xffffffc080202a70:  00453593          sltiu                   a1,a0,4
0xffffffc080202a74:  1575              addi                    a0,a0,-3
0xffffffc080202a76:  00a03533          snez                    a0,a0
0xffffffc080202a7a:  15fd              addi                    a1,a1,-1
0xffffffc080202a7c:  8d4d              or                      a0,a0,a1
0xffffffc080202a7e:  55fd              addi                    a1,zero,-1
0xffffffc080202a80:  00b50563          beq                     a0,a1,10                # 0xffffffc080202a8a

----------------
IN: 
Priv: 1; Virt: 0
0xffffffc080202a84:  0ff57513          andi                    a0,a0,255
0xffffffc080202a88:  e129              bnez                    a0,66                   # 0xffffffc080202aca

----------------
IN: 
Priv: 1; Virt: 0
0xffffffc080202aca:  00040537          lui                     a0,64
0xffffffc080202ace:  10052073          csrrs                   zero,sstatus,a0

----------------
IN: 
Priv: 1; Virt: 0
0xffffffc080202ad2:  10002573          csrrs                   a0,sstatus,zero

----------------
IN: 
Priv: 1; Virt: 0
0xffffffc080202ad6:  6599              lui                     a1,6
0xffffffc080202ad8:  8d4d              or                      a0,a0,a1
0xffffffc080202ada:  10051073          csrrw                   zero,sstatus,a0

----------------
IN: 
Priv: 1; Virt: 0
0xffffffc080202ade:  557d              addi                    a0,zero,-1
0xffffffc080202ae0:  151a              slli                    a0,a0,38
0xffffffc080202ae2:  00a964b3          or                      s1,s2,a0
0xffffffc080202ae6:  e9040513          addi                    a0,s0,-368
0xffffffc080202aea:  85a6              mv                      a1,s1
0xffffffc080202aec:  00002097          auipc                   ra,2                    # 0xffffffc080204aec
0xffffffc080202af0:  e28080e7          jalr                    ra,ra,-472

----------------
IN: 
Priv: 1; Virt: 0
0xffffffc080204914:  1141              addi                    sp,sp,-16
0xffffffc080204916:  e406              sd                      ra,8(sp)
0xffffffc080204918:  e022              sd                      s0,0(sp)
0xffffffc08020491a:  0800              addi                    s0,sp,16
0xffffffc08020491c:  20058763          beqz                    a1,526                  # 0xffffffc080204b2a

----------------
IN: 
Priv: 1; Virt: 0
0xffffffc080204920:  00758603          lb                      a2,7(a1)
0xffffffc080204924:  0065c683          lbu                     a3,6(a1)
0xffffffc080204928:  0045c703          lbu                     a4,4(a1)
0xffffffc08020492c:  0055c783          lbu                     a5,5(a1)
0xffffffc080204930:  0ff67613          andi                    a2,a2,255
0xffffffc080204934:  06a2              slli                    a3,a3,8
0xffffffc080204936:  8e55              or                      a2,a2,a3
0xffffffc080204938:  07c2              slli                    a5,a5,16
0xffffffc08020493a:  0187169b          slliw                   a3,a4,24
0xffffffc08020493e:  8edd              or                      a3,a3,a5
0xffffffc080204940:  00c6e2b3          or                      t0,a3,a2
0xffffffc080204944:  4611              addi                    a2,zero,4
0xffffffc080204946:  4709              addi                    a4,zero,2
0xffffffc080204948:  1ec2e663          bgtu                    a2,t0,492               # 0xffffffc080204b34

----------------
IN: 
Priv: 1; Virt: 0
0xffffffc08020494c:  02029693          slli                    a3,t0,32
0xffffffc080204950:  0206d893          srli                    a7,a3,32
0xffffffc080204954:  4685              addi                    a3,zero,1
0xffffffc080204956:  1682              slli                    a3,a3,32
0xffffffc080204958:  ff868813          addi                    a6,a3,-8
0xffffffc08020495c:  00480693          addi                    a3,a6,4
0xffffffc080204960:  00d8f7b3          and                     a5,a7,a3
0xffffffc080204964:  0007869b          sext.w                  a3,a5
0xffffffc080204968:  1cc68663          beq                     a3,a2,460               # 0xffffffc080204b34

----------------
IN: 
Priv: 1; Virt: 0
0xffffffc08020496c:  4621              addi                    a2,zero,8
0xffffffc08020496e:  1cc68363          beq                     a3,a2,454               # 0xffffffc080204b34

----------------
IN: 
Priv: 1; Virt: 0
0xffffffc080204972:  4631              addi                    a2,zero,12
0xffffffc080204974:  1cc78063          beq                     a5,a2,448               # 0xffffffc080204b34

----------------
IN: 
Priv: 1; Virt: 0
0xffffffc080204978:  4641              addi                    a2,zero,16
0xffffffc08020497a:  1ac78d63          beq                     a5,a2,442               # 0xffffffc080204b34

----------------
IN: 
Priv: 1; Virt: 0
0xffffffc08020497e:  4651              addi                    a2,zero,20
0xffffffc080204980:  1ac78a63          beq                     a5,a2,436               # 0xffffffc080204b34

----------------
IN: 
Priv: 1; Virt: 0
0xffffffc080204984:  4661              addi                    a2,zero,24
0xffffffc080204986:  1ac78763          beq                     a5,a2,430               # 0xffffffc080204b34

----------------
IN: 
Priv: 1; Virt: 0
0xffffffc08020498a:  4671              addi                    a2,zero,28
0xffffffc08020498c:  1ac78463          beq                     a5,a2,424               # 0xffffffc080204b34

----------------
IN: 
Priv: 1; Virt: 0
0xffffffc080204990:  0108f633          and                     a2,a7,a6
0xffffffc080204994:  02000693          addi                    a3,zero,32
0xffffffc080204998:  18d60e63          beq                     a2,a3,412               # 0xffffffc080204b34

----------------
IN: 
Priv: 1; Virt: 0
0xffffffc08020499c:  0015c603          lbu                     a2,1(a1)
0xffffffc0802049a0:  0005c683          lbu                     a3,0(a1)
0xffffffc0802049a4:  0025c703          lbu                     a4,2(a1)
0xffffffc0802049a8:  0035c783          lbu                     a5,3(a1)
0xffffffc0802049ac:  0086161b          slliw                   a2,a2,8
0xffffffc0802049b0:  8e55              or                      a2,a2,a3
0xffffffc0802049b2:  0107169b          slliw                   a3,a4,16
0xffffffc0802049b6:  0187971b          slliw                   a4,a5,24
0xffffffc0802049ba:  8ed9              or                      a3,a3,a4
0xffffffc0802049bc:  8e55              or                      a2,a2,a3
0xffffffc0802049be:  edfe16b7          lui                     a3,-73759
0xffffffc0802049c2:  dd06869b          addiw                   a3,a3,-560
0xffffffc0802049c6:  16d61663          bne                     a2,a3,364               # 0xffffffc080204b32

----------------
IN: 
Priv: 1; Virt: 0
0xffffffc0802049ca:  00b58603          lb                      a2,11(a1)
0xffffffc0802049ce:  00a5c683          lbu                     a3,10(a1)
0xffffffc0802049d2:  0085c703          lbu                     a4,8(a1)
0xffffffc0802049d6:  0095c783          lbu                     a5,9(a1)
0xffffffc0802049da:  0ff67613          andi                    a2,a2,255
0xffffffc0802049de:  06a2              slli                    a3,a3,8
0xffffffc0802049e0:  8e55              or                      a2,a2,a3
0xffffffc0802049e2:  07c2              slli                    a5,a5,16
0xffffffc0802049e4:  0187169b          slliw                   a3,a4,24
0xffffffc0802049e8:  8edd              or                      a3,a3,a5
0xffffffc0802049ea:  00c6e833          or                      a6,a3,a2
0xffffffc0802049ee:  00f58603          lb                      a2,15(a1)
0xffffffc0802049f2:  00e5c683          lbu                     a3,14(a1)
0xffffffc0802049f6:  00c5c703          lbu                     a4,12(a1)
0xffffffc0802049fa:  00d5c783          lbu                     a5,13(a1)
0xffffffc0802049fe:  0ff67613          andi                    a2,a2,255
0xffffffc080204a02:  06a2              slli                    a3,a3,8
0xffffffc080204a04:  8e55              or                      a2,a2,a3
0xffffffc080204a06:  07c2              slli                    a5,a5,16
0xffffffc080204a08:  0187169b          slliw                   a3,a4,24
0xffffffc080204a0c:  8edd              or                      a3,a3,a5
0xffffffc080204a0e:  00c6e333          or                      t1,a3,a2
0xffffffc080204a12:  01358603          lb                      a2,19(a1)
0xffffffc080204a16:  0125c683          lbu                     a3,18(a1)
0xffffffc080204a1a:  0105c703          lbu                     a4,16(a1)
0xffffffc080204a1e:  0115c783          lbu                     a5,17(a1)
0xffffffc080204a22:  0ff67613          andi                    a2,a2,255
0xffffffc080204a26:  06a2              slli                    a3,a3,8
0xffffffc080204a28:  8e55              or                      a2,a2,a3
0xffffffc080204a2a:  07c2              slli                    a5,a5,16
0xffffffc080204a2c:  0187169b          slliw                   a3,a4,24
0xffffffc080204a30:  8edd              or                      a3,a3,a5
0xffffffc080204a32:  00c6e3b3          or                      t2,a3,a2
0xffffffc080204a36:  01758603          lb                      a2,23(a1)
0xffffffc080204a3a:  0165c683          lbu                     a3,22(a1)
0xffffffc080204a3e:  0145c783          lbu                     a5,20(a1)
0xffffffc080204a42:  0155c703          lbu                     a4,21(a1)
0xffffffc080204a46:  0ff67613          andi                    a2,a2,255
0xffffffc080204a4a:  06a2              slli                    a3,a3,8
0xffffffc080204a4c:  8e55              or                      a2,a2,a3
0xffffffc080204a4e:  0742              slli                    a4,a4,16
0xffffffc080204a50:  0187969b          slliw                   a3,a5,24
0xffffffc080204a54:  8ed9              or                      a3,a3,a4
0xffffffc080204a56:  00c6ee33          or                      t3,a3,a2
0xffffffc080204a5a:  01b58683          lb                      a3,27(a1)
0xffffffc080204a5e:  01a5c703          lbu                     a4,26(a1)
0xffffffc080204a62:  0185c783          lbu                     a5,24(a1)
0xffffffc080204a66:  0195c603          lbu                     a2,25(a1)
0xffffffc080204a6a:  0ff6f693          andi                    a3,a3,255
0xffffffc080204a6e:  0722              slli                    a4,a4,8
0xffffffc080204a70:  8ed9              or                      a3,a3,a4
0xffffffc080204a72:  0642              slli                    a2,a2,16
0xffffffc080204a74:  0187971b          slliw                   a4,a5,24
0xffffffc080204a78:  8e59              or                      a2,a2,a4
0xffffffc080204a7a:  00d66eb3          or                      t4,a2,a3
0xffffffc080204a7e:  01f58683          lb                      a3,31(a1)
0xffffffc080204a82:  01e5c703          lbu                     a4,30(a1)
0xffffffc080204a86:  01c5c783          lbu                     a5,28(a1)
0xffffffc080204a8a:  01d5c603          lbu                     a2,29(a1)
0xffffffc080204a8e:  0ff6f693          andi                    a3,a3,255
0xffffffc080204a92:  0722              slli                    a4,a4,8
0xffffffc080204a94:  8ed9              or                      a3,a3,a4
0xffffffc080204a96:  0642              slli                    a2,a2,16
0xffffffc080204a98:  0187971b          slliw                   a4,a5,24
0xffffffc080204a9c:  8e59              or                      a2,a2,a4
0xffffffc080204a9e:  00d66f33          or                      t5,a2,a3
0xffffffc080204aa2:  02758683          lb                      a3,39(a1)
0xffffffc080204aa6:  0265c703          lbu                     a4,38(a1)
0xffffffc080204aaa:  0245c783          lbu                     a5,36(a1)
0xffffffc080204aae:  0255c603          lbu                     a2,37(a1)
0xffffffc080204ab2:  0ff6f693          andi                    a3,a3,255
0xffffffc080204ab6:  0087171b          slliw                   a4,a4,8
0xffffffc080204aba:  8ed9              or                      a3,a3,a4
0xffffffc080204abc:  0106161b          slliw                   a2,a2,16
0xffffffc080204ac0:  0187971b          slliw                   a4,a5,24
0xffffffc080204ac4:  8e59              or                      a2,a2,a4
0xffffffc080204ac6:  00d66fb3          or                      t6,a2,a3
0xffffffc080204aca:  02358683          lb                      a3,35(a1)
0xffffffc080204ace:  0225c703          lbu                     a4,34(a1)
0xffffffc080204ad2:  0205c783          lbu                     a5,32(a1)
0xffffffc080204ad6:  0215c603          lbu                     a2,33(a1)
0xffffffc080204ada:  0ff6f693          andi                    a3,a3,255
0xffffffc080204ade:  0087171b          slliw                   a4,a4,8
0xffffffc080204ae2:  8ed9              or                      a3,a3,a4
0xffffffc080204ae4:  0106161b          slliw                   a2,a2,16
0xffffffc080204ae8:  0187971b          slliw                   a4,a5,24
0xffffffc080204aec:  8e59              or                      a2,a2,a4
0xffffffc080204aee:  8e55              or                      a2,a2,a3
0xffffffc080204af0:  01052c23          sw                      a6,24(a0)
0xffffffc080204af4:  00652e23          sw                      t1,28(a0)
0xffffffc080204af8:  02752023          sw                      t2,32(a0)
0xffffffc080204afc:  03c52223          sw                      t3,36(a0)
0xffffffc080204b00:  03d52423          sw                      t4,40(a0)
0xffffffc080204b04:  03e52623          sw                      t5,44(a0)
0xffffffc080204b08:  d910              sw                      a2,48(a0)
0xffffffc080204b0a:  03f52a23          sw                      t6,52(a0)
0xffffffc080204b0e:  e10c              sd                      a1,0(a0)
0xffffffc080204b10:  01153423          sd                      a7,8(a0)
0xffffffc080204b14:  d00e05b7          lui                     a1,-196384
0xffffffc080204b18:  eed5859b          addiw                   a1,a1,-275
0xffffffc080204b1c:  c90c              sw                      a1,16(a0)
0xffffffc080204b1e:  00552a23          sw                      t0,20(a0)
0xffffffc080204b22:  60a2              ld                      ra,8(sp)
0xffffffc080204b24:  6402              ld                      s0,0(sp)
0xffffffc080204b26:  0141              addi                    sp,sp,16
0xffffffc080204b28:  8082              ret                     

----------------
IN: 
Priv: 1; Virt: 0
0xffffffc080202af4:  e9043503          ld                      a0,-368(s0)
0xffffffc080202af8:  4585              addi                    a1,zero,1
0xffffffc080202afa:  c535              beqz                    a0,108                  # 0xffffffc080202b66

----------------
IN: 
Priv: 1; Virt: 0
0xffffffc080202afc:  ec043503          ld                      a0,-320(s0)
0xffffffc080202b00:  eb843583          ld                      a1,-328(s0)
0xffffffc080202b04:  eb043603          ld                      a2,-336(s0)
0xffffffc080202b08:  eea43c23          sd                      a0,-264(s0)
0xffffffc080202b0c:  eeb43823          sd                      a1,-272(s0)
0xffffffc080202b10:  eec43423          sd                      a2,-280(s0)
0xffffffc080202b14:  ea843503          ld                      a0,-344(s0)
0xffffffc080202b18:  ea043583          ld                      a1,-352(s0)
0xffffffc080202b1c:  e9843603          ld                      a2,-360(s0)
0xffffffc080202b20:  e9043683          ld                      a3,-368(s0)
0xffffffc080202b24:  eea43023          sd                      a0,-288(s0)
0xffffffc080202b28:  ecb43c23          sd                      a1,-296(s0)
0xffffffc080202b2c:  ecc43823          sd                      a2,-304(s0)
0xffffffc080202b30:  ecd43423          sd                      a3,-312(s0)
0xffffffc080202b34:  f0040513          addi                    a0,s0,-256
0xffffffc080202b38:  ec840593          addi                    a1,s0,-312
0xffffffc080202b3c:  00002097          auipc                   ra,2                    # 0xffffffc080204b3c
0xffffffc080202b40:  008080e7          jalr                    ra,ra,8

----------------
IN: 
Priv: 1; Virt: 0
0xffffffc080204b44:  7171              addi                    sp,sp,-176
0xffffffc080204b46:  f506              sd                      ra,168(sp)
0xffffffc080204b48:  f122              sd                      s0,160(sp)
0xffffffc080204b4a:  ed26              sd                      s1,152(sp)
0xffffffc080204b4c:  e94a              sd                      s2,144(sp)
0xffffffc080204b4e:  e54e              sd                      s3,136(sp)
0xffffffc080204b50:  e152              sd                      s4,128(sp)
0xffffffc080204b52:  fcd6              sd                      s5,120(sp)
0xffffffc080204b54:  f8da              sd                      s6,112(sp)
0xffffffc080204b56:  f4de              sd                      s7,104(sp)
0xffffffc080204b58:  1900              addi                    s0,sp,176
0xffffffc080204b5a:  892a              mv                      s2,a0
0xffffffc080204b5c:  00009517          auipc                   a0,9                    # 0xffffffc08020db5c
0xffffffc080204b60:  9df50613          addi                    a2,a0,-1569
0xffffffc080204b64:  f7040513          addi                    a0,s0,-144
0xffffffc080204b68:  4695              addi                    a3,zero,5
0xffffffc080204b6a:  00000097          auipc                   ra,0                    # 0xffffffc080204b6a
0xffffffc080204b6e:  1f4080e7          jalr                    ra,ra,500

----------------
IN: 
Priv: 1; Virt: 0
0xffffffc080204d5e:  7111              addi                    sp,sp,-256
0xffffffc080204d60:  fd86              sd                      ra,248(sp)
0xffffffc080204d62:  f9a2              sd                      s0,240(sp)
0xffffffc080204d64:  f5a6              sd                      s1,232(sp)
0xffffffc080204d66:  f1ca              sd                      s2,224(sp)
0xffffffc080204d68:  edce              sd                      s3,216(sp)
0xffffffc080204d6a:  e9d2              sd                      s4,208(sp)
0xffffffc080204d6c:  e5d6              sd                      s5,200(sp)
0xffffffc080204d6e:  e1da              sd                      s6,192(sp)
0xffffffc080204d70:  0200              addi                    s0,sp,256
0xffffffc080204d72:  8aae              mv                      s5,a1
0xffffffc080204d74:  0185eb03          lwu                     s6,24(a1)
0xffffffc080204d78:  0345e483          lwu                     s1,52(a1)
0xffffffc080204d7c:  658c              ld                      a1,8(a1)
0xffffffc080204d7e:  01648733          add                     a4,s1,s6
0xffffffc080204d82:  10e5e663          bgtu                    a4,a1,268               # 0xffffffc080204e8e

----------------
IN: 
Priv: 1; Virt: 0
0xffffffc080204d86:  89b6              mv                      s3,a3
0xffffffc080204d88:  8a32              mv                      s4,a2
0xffffffc080204d8a:  892a              mv                      s2,a0
0xffffffc080204d8c:  000ab503          ld                      a0,0(s5)
0xffffffc080204d90:  9b2a              add                     s6,s6,a0
0xffffffc080204d92:  f3643c23          sd                      s6,-200(s0)
0xffffffc080204d96:  f4943023          sd                      s1,-192(s0)
0xffffffc080204d9a:  f0040513          addi                    a0,s0,-256
0xffffffc080204d9e:  f3840593          addi                    a1,s0,-200
0xffffffc080204da2:  8756              mv                      a4,s5
0xffffffc080204da4:  4781              mv                      a5,zero
0xffffffc080204da6:  fffff097          auipc                   ra,-1                   # 0xffffffc080203da6
0xffffffc080204daa:  f40080e7          jalr                    ra,ra,-192

----------------
IN: 
Priv: 1; Virt: 0
0xffffffc080203ce6:  714d              addi                    sp,sp,-336
0xffffffc080203ce8:  e686              sd                      ra,328(sp)
0xffffffc080203cea:  e2a2              sd                      s0,320(sp)
0xffffffc080203cec:  fe26              sd                      s1,312(sp)
0xffffffc080203cee:  fa4a              sd                      s2,304(sp)
0xffffffc080203cf0:  f64e              sd                      s3,296(sp)
0xffffffc080203cf2:  f252              sd                      s4,288(sp)
0xffffffc080203cf4:  ee56              sd                      s5,280(sp)
0xffffffc080203cf6:  ea5a              sd                      s6,272(sp)
0xffffffc080203cf8:  e65e              sd                      s7,264(sp)
0xffffffc080203cfa:  e262              sd                      s8,256(sp)
0xffffffc080203cfc:  fde6              sd                      s9,248(sp)
0xffffffc080203cfe:  f9ea              sd                      s10,240(sp)
0xffffffc080203d00:  f5ee              sd                      s11,232(sp)
0xffffffc080203d02:  0a80              addi                    s0,sp,336
0xffffffc080203d04:  89c2              mv                      s3,a6
0xffffffc080203d06:  8a3e              mv                      s4,a5
0xffffffc080203d08:  84ba              mv                      s1,a4
0xffffffc080203d0a:  8cae              mv                      s9,a1
0xffffffc080203d0c:  892a              mv                      s2,a0
0xffffffc080203d0e:  f0840c13          addi                    s8,s0,-248
0xffffffc080203d12:  f0043423          sd                      zero,-248(s0)
0xffffffc080203d16:  f0d43823          sd                      a3,-240(s0)
0xffffffc080203d1a:  f0c43c23          sd                      a2,-232(s0)
0xffffffc080203d1e:  f2d43023          sd                      a3,-224(s0)
0xffffffc080203d22:  f2043423          sd                      zero,-216(s0)
0xffffffc080203d26:  f2d43823          sd                      a3,-208(s0)
0xffffffc080203d2a:  4505              addi                    a0,zero,1
0xffffffc080203d2c:  f2a43c23          sd                      a0,-200(s0)
0xffffffc080203d30:  02f00593          addi                    a1,zero,47
0xffffffc080203d34:  1582              slli                    a1,a1,32
0xffffffc080203d36:  02f58593          addi                    a1,a1,47
0xffffffc080203d3a:  f4b43023          sd                      a1,-192(s0)
0xffffffc080203d3e:  f4a41423          sh                      a0,-184(s0)
0xffffffc080203d42:  f0a43023          sd                      a0,-256(s0)
0xffffffc080203d46:  8562              mv                      a0,s8
0xffffffc080203d48:  00000097          auipc                   ra,0                    # 0xffffffc080203d48
0xffffffc080203d4c:  a3a080e7          jalr                    ra,ra,-1478

----------------
IN: 
Priv: 1; Virt: 0
0xffffffc080203782:  7159              addi                    sp,sp,-112
0xffffffc080203784:  f486              sd                      ra,104(sp)
0xffffffc080203786:  f0a2              sd                      s0,96(sp)
0xffffffc080203788:  eca6              sd                      s1,88(sp)
0xffffffc08020378a:  e8ca              sd                      s2,80(sp)
0xffffffc08020378c:  e4ce              sd                      s3,72(sp)
0xffffffc08020378e:  e0d2              sd                      s4,64(sp)
0xffffffc080203790:  fc56              sd                      s5,56(sp)
0xffffffc080203792:  f85a              sd                      s6,48(sp)
0xffffffc080203794:  f45e              sd                      s7,40(sp)
0xffffffc080203796:  f062              sd                      s8,32(sp)
0xffffffc080203798:  ec66              sd                      s9,24(sp)
0xffffffc08020379a:  e86a              sd                      s10,16(sp)
0xffffffc08020379c:  e46e              sd                      s11,8(sp)
0xffffffc08020379e:  1880              addi                    s0,sp,112
0xffffffc0802037a0:  8aaa              mv                      s5,a0
0xffffffc0802037a2:  04154503          lbu                     a0,65(a0)
0xffffffc0802037a6:  c119              beqz                    a0,6                    # 0xffffffc0802037ac

----------------
IN: 
Priv: 1; Virt: 0
0xffffffc0802037ac:  020ab483          ld                      s1,32(s5)
0xffffffc0802037b0:  028abb03          ld                      s6,40(s5)
0xffffffc0802037b4:  018abb83          ld                      s7,24(s5)
0xffffffc0802037b8:  010aba03          ld                      s4,16(s5)
0xffffffc0802037bc:  009b3533          sltu                    a0,s6,s1
0xffffffc0802037c0:  016bb5b3          sltu                    a1,s7,s6
0xffffffc0802037c4:  8d4d              or                      a0,a0,a1
0xffffffc0802037c6:  12051363          bnez                    a0,294                  # 0xffffffc0802038ec

----------------
IN: 
Priv: 1; Virt: 0
0xffffffc0802037ca:  030ab903          ld                      s2,48(s5)
0xffffffc0802037ce:  038a8993          addi                    s3,s5,56
0xffffffc0802037d2:  01390c33          add                     s8,s2,s3
0xffffffc0802037d6:  4511              addi                    a0,zero,4
0xffffffc0802037d8:  1c7d              addi                    s8,s8,-1
0xffffffc0802037da:  07257a63          bleu                    s2,a0,116               # 0xffffffc08020384e

----------------
IN: 
Priv: 1; Virt: 0
0xffffffc08020384e:  4cc1              addi                    s9,zero,16
0xffffffc080203850:  4d05              addi                    s10,zero,1
0xffffffc080203852:  a019              j                       6                       # 0xffffffc080203858

----------------
IN: 
Priv: 1; Virt: 0
0xffffffc080203858:  000c4503          lbu                     a0,0(s8)
0xffffffc08020385c:  409b0633          sub                     a2,s6,s1
0xffffffc080203860:  009a06b3          add                     a3,s4,s1
0xffffffc080203864:  03967763          bleu                    s9,a2,46                # 0xffffffc080203892

----------------
IN: 
Priv: 1; Virt: 0
0xffffffc080203868:  4581              mv                      a1,zero
0xffffffc08020386a:  009b1663          bne                     s6,s1,12                # 0xffffffc080203876

----------------
IN: 
Priv: 1; Virt: 0
0xffffffc080203876:  00b68733          add                     a4,a3,a1
0xffffffc08020387a:  00074703          lbu                     a4,0(a4)
0xffffffc08020387e:  02a70263          beq                     a4,a0,36                # 0xffffffc0802038a2

----------------
IN: 
Priv: 1; Virt: 0
0xffffffc0802038a2:  4505              addi                    a0,zero,1
0xffffffc0802038a4:  05a51263          bne                     a0,s10,68               # 0xffffffc0802038e8

----------------
IN: 
Priv: 1; Virt: 0
0xffffffc0802038a8:  95a6              add                     a1,a1,s1
0xffffffc0802038aa:  00158493          addi                    s1,a1,1
0xffffffc0802038ae:  0124b533          sltu                    a0,s1,s2
0xffffffc0802038b2:  009bb5b3          sltu                    a1,s7,s1
0xffffffc0802038b6:  8d4d              or                      a0,a0,a1
0xffffffc0802038b8:  029ab023          sd                      s1,32(s5)
0xffffffc0802038bc:  fd41              bnez                    a0,-104                 # 0xffffffc080203854

----------------
IN: 
Priv: 1; Virt: 0
0xffffffc0802038be:  41248db3          sub                     s11,s1,s2
0xffffffc0802038c2:  01ba0533          add                     a0,s4,s11
0xffffffc0802038c6:  85ce              mv                      a1,s3
0xffffffc0802038c8:  864a              mv                      a2,s2
0xffffffc0802038ca:  00005097          auipc                   ra,5                    # 0xffffffc0802088ca
0xffffffc0802038ce:  872080e7          jalr                    ra,ra,-1934

----------------
IN: 
Priv: 1; Virt: 0
0xffffffc08020813c:  00000317          auipc                   t1,0                    # 0xffffffc08020813c
0xffffffc080208140:  fd030067          jalr                    zero,t1,-48

----------------
IN: 
Priv: 1; Virt: 0
0xffffffc08020810c:  ca19              beqz                    a2,22                   # 0xffffffc080208122

----------------
IN: 
Priv: 1; Virt: 0
0xffffffc08020810e:  00054683          lbu                     a3,0(a0)
0xffffffc080208112:  0005c703          lbu                     a4,0(a1)
0xffffffc080208116:  00e69863          bne                     a3,a4,16                # 0xffffffc080208126

----------------
IN: 
Priv: 1; Virt: 0
0xffffffc08020811a:  0585              addi                    a1,a1,1
0xffffffc08020811c:  167d              addi                    a2,a2,-1
0xffffffc08020811e:  0505              addi                    a0,a0,1
0xffffffc080208120:  f67d              bnez                    a2,-18                  # 0xffffffc08020810e

----------------
IN: 
Priv: 1; Virt: 0
0xffffffc080208122:  4501              mv                      a0,zero
0xffffffc080208124:  8082              ret                     

----------------
IN: 
Priv: 1; Virt: 0
0xffffffc0802038d2:  2501              sext.w                  a0,a0
0xffffffc0802038d4:  f141              bnez                    a0,-128                 # 0xffffffc080203854

----------------
IN: 
Priv: 1; Virt: 0
0xffffffc0802038d6:  000ab583          ld                      a1,0(s5)
0xffffffc0802038da:  00ba0533          add                     a0,s4,a1
0xffffffc0802038de:  40bd85b3          sub                     a1,s11,a1
0xffffffc0802038e2:  009ab023          sd                      s1,0(s5)
0xffffffc0802038e6:  a02d              j                       42                      # 0xffffffc080203910

----------------
IN: 
Priv: 1; Virt: 0
0xffffffc080203910:  70a6              ld                      ra,104(sp)
0xffffffc080203912:  7406              ld                      s0,96(sp)
0xffffffc080203914:  64e6              ld                      s1,88(sp)
0xffffffc080203916:  6946              ld                      s2,80(sp)
0xffffffc080203918:  69a6              ld                      s3,72(sp)
0xffffffc08020391a:  6a06              ld                      s4,64(sp)
0xffffffc08020391c:  7ae2              ld                      s5,56(sp)
0xffffffc08020391e:  7b42              ld                      s6,48(sp)
0xffffffc080203920:  7ba2              ld                      s7,40(sp)
0xffffffc080203922:  7c02              ld                      s8,32(sp)
0xffffffc080203924:  6ce2              ld                      s9,24(sp)
0xffffffc080203926:  6d42              ld                      s10,16(sp)
0xffffffc080203928:  6da2              ld                      s11,8(sp)
0xffffffc08020392a:  6165              addi                    sp,sp,112
0xffffffc08020392c:  8082              ret                     

----------------
IN: 
Priv: 1; Virt: 0
0xffffffc080203d50:  c565              beqz                    a0,232                  # 0xffffffc080203e38

----------------
IN: 
Priv: 1; Virt: 0
0xffffffc080203d52:  8d2e              mv                      s10,a1
0xffffffc080203d54:  008cba83          ld                      s5,8(s9)
0xffffffc080203d58:  4591              addi                    a1,zero,4
0xffffffc080203d5a:  0cbaef63          bgtu                    a1,s5,222               # 0xffffffc080203e38

----------------
IN: 
Priv: 1; Virt: 0
0xffffffc080203d5e:  8baa              mv                      s7,a0
0xffffffc080203d60:  ef443423          sd                      s4,-280(s0)
0xffffffc080203d64:  ef343823          sd                      s3,-272(s0)
0xffffffc080203d68:  ee943c23          sd                      s1,-264(s0)
0xffffffc080203d6c:  000cbb03          ld                      s6,0(s9)
0xffffffc080203d70:  4501              mv                      a0,zero
0xffffffc080203d72:  4681              mv                      a3,zero
0xffffffc080203d74:  ffca8a13          addi                    s4,s5,-4
0xffffffc080203d78:  04000637          lui                     a2,16384
0xffffffc080203d7c:  89b6              mv                      s3,a3
0xffffffc080203d7e:  00db0db3          add                     s11,s6,a3
0xffffffc080203d82:  001dc683          lbu                     a3,1(s11)
0xffffffc080203d86:  000dc703          lbu                     a4,0(s11)
0xffffffc080203d8a:  002dc783          lbu                     a5,2(s11)
0xffffffc080203d8e:  003d8483          lb                      s1,3(s11)
0xffffffc080203d92:  06a2              slli                    a3,a3,8
0xffffffc080203d94:  8ed9              or                      a3,a3,a4
0xffffffc080203d96:  07c2              slli                    a5,a5,16
0xffffffc080203d98:  04e2              slli                    s1,s1,24
0xffffffc080203d9a:  8fc5              or                      a5,a5,s1
0xffffffc080203d9c:  8edd              or                      a3,a3,a5
0xffffffc080203d9e:  00c69b63          bne                     a3,a2,22                # 0xffffffc080203db4

----------------
IN: 
Priv: 1; Virt: 0
0xffffffc080203db4:  010005b7          lui                     a1,4096
0xffffffc080203db8:  04b69c63          bne                     a3,a1,88                # 0xffffffc080203e10

----------------
IN: 
Priv: 1; Virt: 0
0xffffffc080203dbc:  004d8593          addi                    a1,s11,4
0xffffffc080203dc0:  00bcb023          sd                      a1,0(s9)
0xffffffc080203dc4:  413a8633          sub                     a2,s5,s3
0xffffffc080203dc8:  ffc60493          addi                    s1,a2,-4
0xffffffc080203dcc:  ffca8693          addi                    a3,s5,-4
0xffffffc080203dd0:  009cb423          sd                      s1,8(s9)
0xffffffc080203dd4:  03368163          beq                     a3,s3,34                # 0xffffffc080203df6

----------------
IN: 
Priv: 1; Virt: 0
0xffffffc080203dd8:  4681              mv                      a3,zero
0xffffffc080203dda:  9556              add                     a0,a0,s5
0xffffffc080203ddc:  eca43c23          sd                      a0,-296(s0)
0xffffffc080203de0:  4515              addi                    a0,zero,5
0xffffffc080203de2:  872e              mv                      a4,a1
0xffffffc080203de4:  00074783          lbu                     a5,0(a4)
0xffffffc080203de8:  cf8d              beqz                    a5,58                   # 0xffffffc080203e22

----------------
IN: 
Priv: 1; Virt: 0
0xffffffc080203e22:  40d00633          neg                     a2,a3
0xffffffc080203e26:  f5040513          addi                    a0,s0,-176
0xffffffc080203e2a:  00003097          auipc                   ra,3                    # 0xffffffc080206e2a
0xffffffc080203e2e:  2d0080e7          jalr                    ra,ra,720

----------------
IN: 
Priv: 1; Virt: 0
0xffffffc0802070fa:  7159              addi                    sp,sp,-112
0xffffffc0802070fc:  f486              sd                      ra,104(sp)
0xffffffc0802070fe:  f0a2              sd                      s0,96(sp)
0xffffffc080207100:  eca6              sd                      s1,88(sp)
0xffffffc080207102:  e8ca              sd                      s2,80(sp)
0xffffffc080207104:  e4ce              sd                      s3,72(sp)
0xffffffc080207106:  e0d2              sd                      s4,64(sp)
0xffffffc080207108:  fc56              sd                      s5,56(sp)
0xffffffc08020710a:  f85a              sd                      s6,48(sp)
0xffffffc08020710c:  f45e              sd                      s7,40(sp)
0xffffffc08020710e:  f062              sd                      s8,32(sp)
0xffffffc080207110:  ec66              sd                      s9,24(sp)
0xffffffc080207112:  e86a              sd                      s10,16(sp)
0xffffffc080207114:  e46e              sd                      s11,8(sp)
0xffffffc080207116:  1a060c63          beqz                    a2,440                  # 0xffffffc0802072ce

----------------
IN: 
Priv: 1; Virt: 0
0xffffffc0802072ce:  4681              mv                      a3,zero
0xffffffc0802072d0:  e50c              sd                      a1,8(a0)
0xffffffc0802072d2:  e910              sd                      a2,16(a0)
0xffffffc0802072d4:  a821              j                       24                      # 0xffffffc0802072ec

----------------
IN: 
Priv: 1; Virt: 0
0xffffffc0802072ec:  e114              sd                      a3,0(a0)
0xffffffc0802072ee:  70a6              ld                      ra,104(sp)
0xffffffc0802072f0:  7406              ld                      s0,96(sp)
0xffffffc0802072f2:  64e6              ld                      s1,88(sp)
0xffffffc0802072f4:  6946              ld                      s2,80(sp)
0xffffffc0802072f6:  69a6              ld                      s3,72(sp)
0xffffffc0802072f8:  6a06              ld                      s4,64(sp)
0xffffffc0802072fa:  7ae2              ld                      s5,56(sp)
0xffffffc0802072fc:  7b42              ld                      s6,48(sp)
0xffffffc0802072fe:  7ba2              ld                      s7,40(sp)
0xffffffc080207300:  7c02              ld                      s8,32(sp)
0xffffffc080207302:  6ce2              ld                      s9,24(sp)
0xffffffc080207304:  6d42              ld                      s10,16(sp)
0xffffffc080207306:  6da2              ld                      s11,8(sp)
0xffffffc080207308:  6165              addi                    sp,sp,112
0xffffffc08020730a:  8082              ret                     

----------------
IN: 
Priv: 1; Virt: 0
0xffffffc080203e32:  f5043503          ld                      a0,-176(s0)
0xffffffc080203e36:  c115              beqz                    a0,36                   # 0xffffffc080203e5a

----------------
IN: 
Priv: 1; Virt: 0
0xffffffc080203e5a:  f6043583          ld                      a1,-160(s0)
0xffffffc080203e5e:  eeb43023          sd                      a1,-288(s0)
0xffffffc080203e62:  99f1              andi                    a1,a1,-4
0xffffffc080203e64:  00458693          addi                    a3,a1,4
0xffffffc080203e68:  8652              mv                      a2,s4
0xffffffc080203e6a:  00da6363          bgtu                    a3,s4,6                 # 0xffffffc080203e70

----------------
IN: 
Priv: 1; Virt: 0
0xffffffc080203e6e:  8636              mv                      a2,a3
0xffffffc080203e70:  00a03533          snez                    a0,a0
0xffffffc080203e74:  40ca8633          sub                     a2,s5,a2
0xffffffc080203e78:  41360633          sub                     a2,a2,s3
0xffffffc080203e7c:  1671              addi                    a2,a2,-4
0xffffffc080203e7e:  00d4e663          bgtu                    a3,s1,12                # 0xffffffc080203e8a

----------------
IN: 
Priv: 1; Virt: 0
0xffffffc080203e82:  95da              add                     a1,a1,s6
0xffffffc080203e84:  95ce              add                     a1,a1,s3
0xffffffc080203e86:  05a1              addi                    a1,a1,8
0xffffffc080203e88:  a029              j                       10                      # 0xffffffc080203e92

----------------
IN: 
Priv: 1; Virt: 0
0xffffffc080203e92:  f5843703          ld                      a4,-168(s0)
0xffffffc080203e96:  fff50b13          addi                    s6,a0,-1
0xffffffc080203e9a:  00bcb023          sd                      a1,0(s9)
0xffffffc080203e9e:  4541              addi                    a0,zero,16
0xffffffc080203ea0:  00ccb423          sd                      a2,8(s9)
0xffffffc080203ea4:  ecc43423          sd                      a2,-312(s0)
0xffffffc080203ea8:  ecb43023          sd                      a1,-320(s0)
0xffffffc080203eac:  ead43c23          sd                      a3,-328(s0)
0xffffffc080203eb0:  02ad7463          bleu                    a0,s10,40               # 0xffffffc080203ed8

----------------
IN: 
Priv: 1; Virt: 0
0xffffffc080203eb4:  040d0063          beqz                    s10,64                  # 0xffffffc080203ef4

----------------
IN: 
Priv: 1; Virt: 0
0xffffffc080203ef4:  4481              mv                      s1,zero
0xffffffc080203ef6:  00eb75b3          and                     a1,s6,a4
0xffffffc080203efa:  ee043503          ld                      a0,-288(s0)
0xffffffc080203efe:  ecb43823          sd                      a1,-304(s0)
0xffffffc080203f02:  01a51f63          bne                     a0,s10,30               # 0xffffffc080203f20

----------------
IN: 
Priv: 1; Virt: 0
0xffffffc080203f06:  852e              mv                      a0,a1
0xffffffc080203f08:  85de              mv                      a1,s7
0xffffffc080203f0a:  866a              mv                      a2,s10
0xffffffc080203f0c:  00004097          auipc                   ra,4                    # 0xffffffc080207f0c
0xffffffc080203f10:  230080e7          jalr                    ra,ra,560

----------------
IN: 
Priv: 1; Virt: 0
0xffffffc080203f14:  ed043583          ld                      a1,-304(s0)
0xffffffc080203f18:  2501              sext.w                  a0,a0
0xffffffc080203f1a:  00153b13          seqz                    s6,a0
0xffffffc080203f1e:  a011              j                       4                       # 0xffffffc080203f22

----------------
IN: 
Priv: 1; Virt: 0
0xffffffc080203f22:  f4043823          sd                      zero,-176(s0)
0xffffffc080203f26:  ee043503          ld                      a0,-288(s0)
0xffffffc080203f2a:  f4a43c23          sd                      a0,-168(s0)
0xffffffc080203f2e:  f6b43023          sd                      a1,-160(s0)
0xffffffc080203f32:  f6a43423          sd                      a0,-152(s0)
0xffffffc080203f36:  f6043823          sd                      zero,-144(s0)
0xffffffc080203f3a:  f6a43c23          sd                      a0,-136(s0)
0xffffffc080203f3e:  4505              addi                    a0,zero,1
0xffffffc080203f40:  f8a43023          sd                      a0,-128(s0)
0xffffffc080203f44:  02651593          slli                    a1,a0,38
0xffffffc080203f48:  04058593          addi                    a1,a1,64
0xffffffc080203f4c:  f8b43423          sd                      a1,-120(s0)
0xffffffc080203f50:  f8a41823          sh                      a0,-112(s0)
0xffffffc080203f54:  f5040513          addi                    a0,s0,-176
0xffffffc080203f58:  00000097          auipc                   ra,0                    # 0xffffffc080203f58
0xffffffc080203f5c:  82a080e7          jalr                    ra,ra,-2006

----------------
IN: 
Priv: 1; Virt: 0
0xffffffc08020386e:  4501              mv                      a0,zero
0xffffffc080203870:  03a00c63          beq                     zero,s10,56             # 0xffffffc0802038a8

----------------
IN: 
Priv: 1; Virt: 0
0xffffffc080203874:  a895              j                       116                     # 0xffffffc0802038e8

----------------
IN: 
Priv: 1; Virt: 0
0xffffffc0802038e8:  036ab023          sd                      s6,32(s5)
0xffffffc0802038ec:  000ab583          ld                      a1,0(s5)
0xffffffc0802038f0:  008ab603          ld                      a2,8(s5)
0xffffffc0802038f4:  040ac503          lbu                     a0,64(s5)
0xffffffc0802038f8:  00b646b3          xor                     a3,a2,a1
0xffffffc0802038fc:  8d55              or                      a0,a0,a3
0xffffffc0802038fe:  4685              addi                    a3,zero,1
0xffffffc080203900:  04da80a3          sb                      a3,65(s5)
0xffffffc080203904:  e111              bnez                    a0,4                    # 0xffffffc080203908

----------------
IN: 
Priv: 1; Virt: 0
0xffffffc080203908:  00ba0533          add                     a0,s4,a1
0xffffffc08020390c:  40b605b3          sub                     a1,a2,a1
0xffffffc080203910:  70a6              ld                      ra,104(sp)
0xffffffc080203912:  7406              ld                      s0,96(sp)
0xffffffc080203914:  64e6              ld                      s1,88(sp)
0xffffffc080203916:  6946              ld                      s2,80(sp)
0xffffffc080203918:  69a6              ld                      s3,72(sp)
0xffffffc08020391a:  6a06              ld                      s4,64(sp)
0xffffffc08020391c:  7ae2              ld                      s5,56(sp)
0xffffffc08020391e:  7b42              ld                      s6,48(sp)
0xffffffc080203920:  7ba2              ld                      s7,40(sp)
0xffffffc080203922:  7c02              ld                      s8,32(sp)
0xffffffc080203924:  6ce2              ld                      s9,24(sp)
0xffffffc080203926:  6d42              ld                      s10,16(sp)
0xffffffc080203928:  6da2              ld                      s11,8(sp)
0xffffffc08020392a:  6165              addi                    sp,sp,112
0xffffffc08020392c:  8082              ret                     

----------------
IN: 
Priv: 1; Virt: 0
0xffffffc080203f60:  ec050ce3          beqz                    a0,-296                 # 0xffffffc080203e38

----------------
IN: 
Priv: 1; Virt: 0
0xffffffc080203f64:  01a59c63          bne                     a1,s10,24               # 0xffffffc080203f7c

----------------
IN: 
Priv: 1; Virt: 0
0xffffffc080203f68:  85de              mv                      a1,s7
0xffffffc080203f6a:  866a              mv                      a2,s10
0xffffffc080203f6c:  00004097          auipc                   ra,4                    # 0xffffffc080207f6c
0xffffffc080203f70:  1d0080e7          jalr                    ra,ra,464

----------------
IN: 
Priv: 1; Virt: 0
0xffffffc080203f74:  cca1              beqz                    s1,88                   # 0xffffffc080203fcc

----------------
IN: 
Priv: 1; Virt: 0
0xffffffc080203fcc:  2501              sext.w                  a0,a0
0xffffffc080203fce:  d955              beqz                    a0,-76                  # 0xffffffc080203f82

----------------
IN: 
Priv: 1; Virt: 0
0xffffffc080203f82:  f0043503          ld                      a0,-256(s0)
0xffffffc080203f86:  ef843b83          ld                      s7,-264(s0)
0xffffffc080203f8a:  ec843803          ld                      a6,-312(s0)
0xffffffc080203f8e:  ec043783          ld                      a5,-320(s0)
0xffffffc080203f92:  c961              beqz                    a0,208                  # 0xffffffc080204062

----------------
IN: 
Priv: 1; Virt: 0
0xffffffc080203f94:  4585              addi                    a1,zero,1
0xffffffc080203f96:  04b51b63          bne                     a0,a1,86                # 0xffffffc080203fec

----------------
IN: 
Priv: 1; Virt: 0
0xffffffc080203f9a:  f0043023          sd                      zero,-256(s0)
0xffffffc080203f9e:  f4944503          lbu                     a0,-183(s0)
0xffffffc080203fa2:  e161              bnez                    a0,192                  # 0xffffffc080204062

----------------
IN: 
Priv: 1; Virt: 0
0xffffffc080203fa4:  4505              addi                    a0,zero,1
0xffffffc080203fa6:  f4a404a3          sb                      a0,-183(s0)
0xffffffc080203faa:  f0843503          ld                      a0,-248(s0)
0xffffffc080203fae:  f1043583          ld                      a1,-240(s0)
0xffffffc080203fb2:  f4844603          lbu                     a2,-184(s0)
0xffffffc080203fb6:  00a5c6b3          xor                     a3,a1,a0
0xffffffc080203fba:  8e55              or                      a2,a2,a3
0xffffffc080203fbc:  c25d              beqz                    a2,166                  # 0xffffffc080204062

----------------
IN: 
Priv: 1; Virt: 0
0xffffffc080203fbe:  f1843483          ld                      s1,-232(s0)
0xffffffc080203fc2:  00a48b33          add                     s6,s1,a0
0xffffffc080203fc6:  40a58c33          sub                     s8,a1,a0
0xffffffc080203fca:  a081              j                       64                      # 0xffffffc08020400a

----------------
IN: 
Priv: 1; Virt: 0
0xffffffc08020400a:  040c0c63          beqz                    s8,88                   # 0xffffffc080204062

----------------
IN: 
Priv: 1; Virt: 0
0xffffffc08020400e:  4511              addi                    a0,zero,4
0xffffffc080204010:  e2a864e3          bgtu                    a0,a6,-472              # 0xffffffc080203e38

----------------
IN: 
Priv: 1; Virt: 0
0xffffffc080204014:  eb843503          ld                      a0,-328(s0)
0xffffffc080204018:  00aa6363          bgtu                    a0,s4,6                 # 0xffffffc08020401e

----------------
IN: 
Priv: 1; Virt: 0
0xffffffc08020401c:  8a2a              mv                      s4,a0
0xffffffc08020401e:  414a8533          sub                     a0,s5,s4
0xffffffc080204022:  41350533          sub                     a0,a0,s3
0xffffffc080204026:  1561              addi                    a0,a0,-8
0xffffffc080204028:  040005b7          lui                     a1,16384
0xffffffc08020402c:  4891              addi                    a7,zero,4
0xffffffc08020402e:  0017c683          lbu                     a3,1(a5)
0xffffffc080204032:  0007c703          lbu                     a4,0(a5)
0xffffffc080204036:  0027c603          lbu                     a2,2(a5)
0xffffffc08020403a:  00378483          lb                      s1,3(a5)
0xffffffc08020403e:  06a2              slli                    a3,a3,8
0xffffffc080204040:  8ed9              or                      a3,a3,a4
0xffffffc080204042:  0642              slli                    a2,a2,16
0xffffffc080204044:  04e2              slli                    s1,s1,24
0xffffffc080204046:  8e45              or                      a2,a2,s1
0xffffffc080204048:  8ed1              or                      a3,a3,a2
0xffffffc08020404a:  04b69363          bne                     a3,a1,70                # 0xffffffc080204090

----------------
IN: 
Priv: 1; Virt: 0
0xffffffc080204090:  000cb503          ld                      a0,0(s9)
0xffffffc080204094:  00154583          lbu                     a1,1(a0)
0xffffffc080204098:  00054603          lbu                     a2,0(a0)
0xffffffc08020409c:  00254683          lbu                     a3,2(a0)
0xffffffc0802040a0:  00350503          lb                      a0,3(a0)
0xffffffc0802040a4:  05a2              slli                    a1,a1,8
0xffffffc0802040a6:  8dd1              or                      a1,a1,a2
0xffffffc0802040a8:  06c2              slli                    a3,a3,16
0xffffffc0802040aa:  0562              slli                    a0,a0,24
0xffffffc0802040ac:  8d55              or                      a0,a0,a3
0xffffffc0802040ae:  8dc9              or                      a1,a1,a0
0xffffffc0802040b0:  030009b7          lui                     s3,12288
0xffffffc0802040b4:  8542              mv                      a0,a6
0xffffffc0802040b6:  8ac2              mv                      s5,a6
0xffffffc0802040b8:  84be              mv                      s1,a5
0xffffffc0802040ba:  05359363          bne                     a1,s3,70                # 0xffffffc080204100

----------------
IN: 
Priv: 1; Virt: 0
0xffffffc0802040be:  4a11              addi                    s4,zero,4
0xffffffc0802040c0:  f5040513          addi                    a0,s0,-176
0xffffffc0802040c4:  85e6              mv                      a1,s9
0xffffffc0802040c6:  865e              mv                      a2,s7
0xffffffc0802040c8:  00000097          auipc                   ra,0                    # 0xffffffc0802040c8
0xffffffc0802040cc:  450080e7          jalr                    ra,ra,1104

----------------
IN: 
Priv: 1; Virt: 0
0xffffffc080204518:  7119              addi                    sp,sp,-128
0xffffffc08020451a:  fc86              sd                      ra,120(sp)
0xffffffc08020451c:  f8a2              sd                      s0,112(sp)
0xffffffc08020451e:  f4a6              sd                      s1,104(sp)
0xffffffc080204520:  f0ca              sd                      s2,96(sp)
0xffffffc080204522:  ecce              sd                      s3,88(sp)
0xffffffc080204524:  e8d2              sd                      s4,80(sp)
0xffffffc080204526:  0100              addi                    s0,sp,128
0xffffffc080204528:  0085b803          ld                      a6,8(a1)
0xffffffc08020452c:  470d              addi                    a4,zero,3
0xffffffc08020452e:  13077463          bleu                    a6,a4,296               # 0xffffffc080204656

----------------
IN: 
Priv: 1; Virt: 0
0xffffffc080204532:  892a              mv                      s2,a0
0xffffffc080204534:  6188              ld                      a0,0(a1)
0xffffffc080204536:  00154703          lbu                     a4,1(a0)
0xffffffc08020453a:  00054783          lbu                     a5,0(a0)
0xffffffc08020453e:  00254483          lbu                     s1,2(a0)
0xffffffc080204542:  00350683          lb                      a3,3(a0)
0xffffffc080204546:  0722              slli                    a4,a4,8
0xffffffc080204548:  8f5d              or                      a4,a4,a5
0xffffffc08020454a:  04c2              slli                    s1,s1,16
0xffffffc08020454c:  06e2              slli                    a3,a3,24
0xffffffc08020454e:  8ec5              or                      a3,a3,s1
0xffffffc080204550:  8f55              or                      a4,a4,a3
0xffffffc080204552:  030006b7          lui                     a3,12288
0xffffffc080204556:  10d71863          bne                     a4,a3,272               # 0xffffffc080204666

----------------
IN: 
Priv: 1; Virt: 0
0xffffffc08020455a:  ffc87693          andi                    a3,a6,-4
0xffffffc08020455e:  16f1              addi                    a3,a3,-4
0xffffffc080204560:  9ae1              andi                    a3,a3,-8
0xffffffc080204562:  16068963          beqz                    a3,370                  # 0xffffffc0802046d4

----------------
IN: 
Priv: 1; Virt: 0
0xffffffc080204566:  00554683          lbu                     a3,5(a0)
0xffffffc08020456a:  00454703          lbu                     a4,4(a0)
0xffffffc08020456e:  00654783          lbu                     a5,6(a0)
0xffffffc080204572:  00750483          lb                      s1,7(a0)
0xffffffc080204576:  0086969b          slliw                   a3,a3,8
0xffffffc08020457a:  00e6e8b3          or                      a7,a3,a4
0xffffffc08020457e:  0107971b          slliw                   a4,a5,16
0xffffffc080204582:  0184969b          slliw                   a3,s1,24
0xffffffc080204586:  8ed9              or                      a3,a3,a4
0xffffffc080204588:  0116e6b3          or                      a3,a3,a7
0xffffffc08020458c:  0186929b          slliw                   t0,a3,24
0xffffffc080204590:  6741              lui                     a4,16
0xffffffc080204592:  f007089b          addiw                   a7,a4,-256
0xffffffc080204596:  0116f6b3          and                     a3,a3,a7
0xffffffc08020459a:  0086969b          slliw                   a3,a3,8
0xffffffc08020459e:  0ff4f713          andi                    a4,s1,255
0xffffffc0802045a2:  0087979b          slliw                   a5,a5,8
0xffffffc0802045a6:  8f5d              or                      a4,a4,a5
0xffffffc0802045a8:  00e2e733          or                      a4,t0,a4
0xffffffc0802045ac:  8f55              or                      a4,a4,a3
0xffffffc0802045ae:  ff480693          addi                    a3,a6,-12
0xffffffc0802045b2:  1702              slli                    a4,a4,32
0xffffffc0802045b4:  02075a13          srli                    s4,a4,32
0xffffffc0802045b8:  1346eb63          bgtu                    s4,a3,310               # 0xffffffc0802046ee

----------------
IN: 
Priv: 1; Virt: 0
0xffffffc0802045bc:  00c50993          addi                    s3,a0,12
0xffffffc0802045c0:  00954703          lbu                     a4,9(a0)
0xffffffc0802045c4:  00854783          lbu                     a5,8(a0)
0xffffffc0802045c8:  00a54483          lbu                     s1,10(a0)
0xffffffc0802045cc:  00b50503          lb                      a0,11(a0)
0xffffffc0802045d0:  0087171b          slliw                   a4,a4,8
0xffffffc0802045d4:  00f76833          or                      a6,a4,a5
0xffffffc0802045d8:  0104979b          slliw                   a5,s1,16
0xffffffc0802045dc:  0185171b          slliw                   a4,a0,24
0xffffffc0802045e0:  8f5d              or                      a4,a4,a5
0xffffffc0802045e2:  01076733          or                      a4,a4,a6
0xffffffc0802045e6:  0187179b          slliw                   a5,a4,24
0xffffffc0802045ea:  01177733          and                     a4,a4,a7
0xffffffc0802045ee:  0087171b          slliw                   a4,a4,8
0xffffffc0802045f2:  0ff57513          andi                    a0,a0,255
0xffffffc0802045f6:  0084949b          slliw                   s1,s1,8
0xffffffc0802045fa:  8d45              or                      a0,a0,s1
0xffffffc0802045fc:  8d5d              or                      a0,a0,a5
0xffffffc0802045fe:  8d59              or                      a0,a0,a4
0xffffffc080204600:  003a0793          addi                    a5,s4,3
0xffffffc080204604:  9bf1              andi                    a5,a5,-4
0xffffffc080204606:  40f68733          sub                     a4,a3,a5
0xffffffc08020460a:  00e6b4b3          sltu                    s1,a3,a4
0xffffffc08020460e:  14fd              addi                    s1,s1,-1
0xffffffc080204610:  8f65              and                     a4,a4,s1
0xffffffc080204612:  00f6e463          bgtu                    a5,a3,8                 # 0xffffffc08020461a

----------------
IN: 
Priv: 1; Virt: 0
0xffffffc080204616:  97ce              add                     a5,a5,s3
0xffffffc080204618:  a029              j                       10                      # 0xffffffc080204622

----------------
IN: 
Priv: 1; Virt: 0
0xffffffc080204622:  e19c              sd                      a5,0(a1)
0xffffffc080204624:  e598              sd                      a4,8(a1)
0xffffffc080204626:  1502              slli                    a0,a0,32
0xffffffc080204628:  02055593          srli                    a1,a0,32
0xffffffc08020462c:  8532              mv                      a0,a2
0xffffffc08020462e:  00001097          auipc                   ra,1                    # 0xffffffc08020562e
0xffffffc080204632:  872080e7          jalr                    ra,ra,-1934

----------------
IN: 
Priv: 1; Virt: 0
0xffffffc080204ea0:  7179              addi                    sp,sp,-48
0xffffffc080204ea2:  f406              sd                      ra,40(sp)
0xffffffc080204ea4:  f022              sd                      s0,32(sp)
0xffffffc080204ea6:  1800              addi                    s0,sp,48
0xffffffc080204ea8:  01c56703          lwu                     a4,28(a0)
0xffffffc080204eac:  03056683          lwu                     a3,48(a0)
0xffffffc080204eb0:  00853803          ld                      a6,8(a0)
0xffffffc080204eb4:  00e687b3          add                     a5,a3,a4
0xffffffc080204eb8:  06f86463          bgtu                    a5,a6,104               # 0xffffffc080204f20

----------------
IN: 
Priv: 1; Virt: 0
0xffffffc080204ebc:  06b6ec63          bgtu                    a1,a3,120               # 0xffffffc080204f34

----------------
IN: 
Priv: 1; Virt: 0
0xffffffc080204ec0:  02b68063          beq                     a3,a1,32                # 0xffffffc080204ee0

----------------
IN: 
Priv: 1; Virt: 0
0xffffffc080204ec4:  6108              ld                      a0,0(a0)
0xffffffc080204ec6:  4601              mv                      a2,zero
0xffffffc080204ec8:  953a              add                     a0,a0,a4
0xffffffc080204eca:  00b50733          add                     a4,a0,a1
0xffffffc080204ece:  8e8d              sub                     a3,a3,a1
0xffffffc080204ed0:  00c70533          add                     a0,a4,a2
0xffffffc080204ed4:  00054503          lbu                     a0,0(a0)
0xffffffc080204ed8:  c115              beqz                    a0,36                   # 0xffffffc080204efc

----------------
IN: 
Priv: 1; Virt: 0
0xffffffc080204eda:  0605              addi                    a2,a2,1
0xffffffc080204edc:  fec69ae3          bne                     a3,a2,-12               # 0xffffffc080204ed0

----------------
IN: 
Priv: 1; Virt: 0
0xffffffc080204ed0:  00c70533          add                     a0,a4,a2
0xffffffc080204ed4:  00054503          lbu                     a0,0(a0)
0xffffffc080204ed8:  c115              beqz                    a0,36                   # 0xffffffc080204efc

----------------
IN: 
Priv: 1; Virt: 0
0xffffffc080204efc:  fd840513          addi                    a0,s0,-40
0xffffffc080204f00:  85ba              mv                      a1,a4
0xffffffc080204f02:  00002097          auipc                   ra,2                    # 0xffffffc080206f02
0xffffffc080204f06:  1f8080e7          jalr                    ra,ra,504

----------------
IN: 
Priv: 1; Virt: 0
0xffffffc08020711a:  4681              mv                      a3,zero
0xffffffc08020711c:  ff160713          addi                    a4,a2,-15
0xffffffc080207120:  00e637b3          sltu                    a5,a2,a4
0xffffffc080207124:  17fd              addi                    a5,a5,-1
0xffffffc080207126:  8f7d              and                     a4,a4,a5
0xffffffc080207128:  00758793          addi                    a5,a1,7
0xffffffc08020712c:  9be1              andi                    a5,a5,-8
0xffffffc08020712e:  40b78833          sub                     a6,a5,a1
0xffffffc080207132:  00858093          addi                    ra,a1,8
0xffffffc080207136:  00007797          auipc                   a5,7                    # 0xffffffc08020e136
0xffffffc08020713a:  d8a78893          addi                    a7,a5,-630
0xffffffc08020713e:  4291              addi                    t0,zero,4
0xffffffc080207140:  0f000313          addi                    t1,zero,240
0xffffffc080207144:  03000393          addi                    t2,zero,48
0xffffffc080207148:  fbf00e13          addi                    t3,zero,-65
0xffffffc08020714c:  0f400e93          addi                    t4,zero,244
0xffffffc080207150:  f8f00f13          addi                    t5,zero,-113
0xffffffc080207154:  4f8d              addi                    t6,zero,3
0xffffffc080207156:  0e000b93          addi                    s7,zero,224
0xffffffc08020715a:  fa000913          addi                    s2,zero,-96
0xffffffc08020715e:  0ed00b13          addi                    s6,zero,237
0xffffffc080207162:  f9f00993          addi                    s3,zero,-97
0xffffffc080207166:  4a31              addi                    s4,zero,12
0xffffffc080207168:  fc000a93          addi                    s5,zero,-64
0xffffffc08020716c:  4c09              addi                    s8,zero,2
0xffffffc08020716e:  4c85              addi                    s9,zero,1
0xffffffc080207170:  a029              j                       10                      # 0xffffffc08020717a

----------------
IN: 
Priv: 1; Virt: 0
0xffffffc08020717a:  00d587b3          add                     a5,a1,a3
0xffffffc08020717e:  0007c783          lbu                     a5,0(a5)
0xffffffc080207182:  03879413          slli                    s0,a5,56
0xffffffc080207186:  00044863          bltz                    s0,16                   # 0xffffffc080207196

----------------
IN: 
Priv: 1; Virt: 0
0xffffffc08020718a:  40d807bb          subw                    a5,a6,a3
0xffffffc08020718e:  8b9d              andi                    a5,a5,7
0xffffffc080207190:  cb9d              beqz                    a5,54                   # 0xffffffc0802071c6

----------------
IN: 
Priv: 1; Virt: 0
0xffffffc080207192:  0685              addi                    a3,a3,1
0xffffffc080207194:  a0bd              j                       110                     # 0xffffffc080207202

----------------
IN: 
Priv: 1; Virt: 0
0xffffffc080207202:  f6c6ece3          bgtu                    a2,a3,-136              # 0xffffffc08020717a

----------------
IN: 
Priv: 1; Virt: 0
0xffffffc0802071c6:  02e6f263          bleu                    a4,a3,36                # 0xffffffc0802071ea

----------------
IN: 
Priv: 1; Virt: 0
0xffffffc0802071ea:  00c6fc63          bleu                    a2,a3,24                # 0xffffffc080207202

----------------
IN: 
Priv: 1; Virt: 0
0xffffffc0802071ee:  00d587b3          add                     a5,a1,a3
0xffffffc0802071f2:  00078783          lb                      a5,0(a5)
0xffffffc0802071f6:  0007c663          bltz                    a5,12                   # 0xffffffc080207202

----------------
IN: 
Priv: 1; Virt: 0
0xffffffc0802071fa:  0685              addi                    a3,a3,1
0xffffffc0802071fc:  fed619e3          bne                     a2,a3,-14               # 0xffffffc0802071ee

----------------
IN: 
Priv: 1; Virt: 0
0xffffffc080207200:  a0f9              j                       206                     # 0xffffffc0802072ce

----------------
IN: 
Priv: 1; Virt: 0
0xffffffc080204f0a:  fd843503          ld                      a0,-40(s0)
0xffffffc080204f0e:  ed0d              bnez                    a0,58                   # 0xffffffc080204f48

----------------
IN: 
Priv: 1; Virt: 0
0xffffffc080204f10:  fe043503          ld                      a0,-32(s0)
0xffffffc080204f14:  fe843583          ld                      a1,-24(s0)
0xffffffc080204f18:  70a2              ld                      ra,40(sp)
0xffffffc080204f1a:  7402              ld                      s0,32(sp)
0xffffffc080204f1c:  6145              addi                    sp,sp,48
0xffffffc080204f1e:  8082              ret                     

----------------
IN: 
Priv: 1; Virt: 0
0xffffffc080204636:  00a93023          sd                      a0,0(s2)
0xffffffc08020463a:  00b93423          sd                      a1,8(s2)
0xffffffc08020463e:  01393823          sd                      s3,16(s2)
0xffffffc080204642:  01493c23          sd                      s4,24(s2)
0xffffffc080204646:  70e6              ld                      ra,120(sp)
0xffffffc080204648:  7446              ld                      s0,112(sp)
0xffffffc08020464a:  74a6              ld                      s1,104(sp)
0xffffffc08020464c:  7906              ld                      s2,96(sp)
0xffffffc08020464e:  69e6              ld                      s3,88(sp)
0xffffffc080204650:  6a46              ld                      s4,80(sp)
0xffffffc080204652:  6109              addi                    sp,sp,128
0xffffffc080204654:  8082              ret                     

----------------
IN: 
Priv: 1; Virt: 0
0xffffffc0802040d0:  008cb503          ld                      a0,8(s9)
0xffffffc0802040d4:  d74562e3          bgtu                    s4,a0,-668              # 0xffffffc080203e38

----------------
IN: 
Priv: 1; Virt: 0
0xffffffc0802040d8:  87a6              mv                      a5,s1
0xffffffc0802040da:  8856              mv                      a6,s5
0xffffffc0802040dc:  000cb583          ld                      a1,0(s9)
0xffffffc0802040e0:  0015c603          lbu                     a2,1(a1)
0xffffffc0802040e4:  0005c683          lbu                     a3,0(a1)
0xffffffc0802040e8:  0025c703          lbu                     a4,2(a1)
0xffffffc0802040ec:  00358583          lb                      a1,3(a1)
0xffffffc0802040f0:  0622              slli                    a2,a2,8
0xffffffc0802040f2:  8e55              or                      a2,a2,a3
0xffffffc0802040f4:  0742              slli                    a4,a4,16
0xffffffc0802040f6:  05e2              slli                    a1,a1,24
0xffffffc0802040f8:  8dd9              or                      a1,a1,a4
0xffffffc0802040fa:  8dd1              or                      a1,a1,a2
0xffffffc0802040fc:  fd3582e3          beq                     a1,s3,-60               # 0xffffffc0802040c0

----------------
IN: 
Priv: 1; Virt: 0
0xffffffc0802040c0:  f5040513          addi                    a0,s0,-176
0xffffffc0802040c4:  85e6              mv                      a1,s9
0xffffffc0802040c6:  865e              mv                      a2,s7
0xffffffc0802040c8:  00000097          auipc                   ra,0                    # 0xffffffc0802040c8
0xffffffc0802040cc:  450080e7          jalr                    ra,ra,1104

----------------
IN: 
Priv: 1; Virt: 0
0xffffffc080204100:  000cb583          ld                      a1,0(s9)
0xffffffc080204104:  0015c603          lbu                     a2,1(a1)
0xffffffc080204108:  0005c883          lbu                     a7,0(a1)
0xffffffc08020410c:  0025c703          lbu                     a4,2(a1)
0xffffffc080204110:  00358683          lb                      a3,3(a1)
0xffffffc080204114:  0622              slli                    a2,a2,8
0xffffffc080204116:  01166633          or                      a2,a2,a7
0xffffffc08020411a:  0742              slli                    a4,a4,16
0xffffffc08020411c:  06e2              slli                    a3,a3,24
0xffffffc08020411e:  8f55              or                      a4,a4,a3
0xffffffc080204120:  8e59              or                      a2,a2,a4
0xffffffc080204122:  010009b7          lui                     s3,4096
0xffffffc080204126:  05361863          bne                     a2,s3,80                # 0xffffffc080204176

----------------
IN: 
Priv: 1; Virt: 0
0xffffffc08020412a:  4a11              addi                    s4,zero,4
0xffffffc08020412c:  f5040513          addi                    a0,s0,-176
0xffffffc080204130:  85e6              mv                      a1,s9
0xffffffc080204132:  865a              mv                      a2,s6
0xffffffc080204134:  86e2              mv                      a3,s8
0xffffffc080204136:  875e              mv                      a4,s7
0xffffffc080204138:  00000097          auipc                   ra,0                    # 0xffffffc080204138
0xffffffc08020413c:  bae080e7          jalr                    ra,ra,-1106

----------------
IN: 
Priv: 1; Virt: 0
0xffffffc080203882:  0585              addi                    a1,a1,1
0xffffffc080203884:  feb619e3          bne                     a2,a1,-14               # 0xffffffc080203876

----------------
IN: 
Priv: 1; Virt: 0
0xffffffc080203888:  4501              mv                      a0,zero
0xffffffc08020388a:  85b2              mv                      a1,a2
0xffffffc08020388c:  01a00e63          beq                     zero,s10,28             # 0xffffffc0802038a8

----------------
IN: 
Priv: 1; Virt: 0
0xffffffc080203890:  a8a1              j                       88                      # 0xffffffc0802038e8

----------------
IN: 
Priv: 1; Virt: 0
0xffffffc080203dea:  00d607b3          add                     a5,a2,a3
0xffffffc080203dee:  16fd              addi                    a3,a3,-1
0xffffffc080203df0:  0705              addi                    a4,a4,1
0xffffffc080203df2:  fea799e3          bne                     a5,a0,-14               # 0xffffffc080203de4

----------------
IN: 
Priv: 1; Virt: 0
0xffffffc080203de4:  00074783          lbu                     a5,0(a4)
0xffffffc080203de8:  cf8d              beqz                    a5,58                   # 0xffffffc080203e22

----------------
IN: 
Priv: 1; Virt: 0
0xffffffc080203eb8:  fffd0513          addi                    a0,s10,-1
0xffffffc080203ebc:  85de              mv                      a1,s7
0xffffffc080203ebe:  0005c603          lbu                     a2,0(a1)
0xffffffc080203ec2:  fc060613          addi                    a2,a2,-64
0xffffffc080203ec6:  00163493          seqz                    s1,a2
0xffffffc080203eca:  00153613          seqz                    a2,a0
0xffffffc080203ece:  8e45              or                      a2,a2,s1
0xffffffc080203ed0:  157d              addi                    a0,a0,-1
0xffffffc080203ed2:  0585              addi                    a1,a1,1
0xffffffc080203ed4:  d66d              beqz                    a2,-22                  # 0xffffffc080203ebe

----------------
IN: 
Priv: 1; Virt: 0
0xffffffc080203ebe:  0005c603          lbu                     a2,0(a1)
0xffffffc080203ec2:  fc060613          addi                    a2,a2,-64
0xffffffc080203ec6:  00163493          seqz                    s1,a2
0xffffffc080203eca:  00153613          seqz                    a2,a0
0xffffffc080203ece:  8e45              or                      a2,a2,s1
0xffffffc080203ed0:  157d              addi                    a0,a0,-1
0xffffffc080203ed2:  0585              addi                    a1,a1,1
0xffffffc080203ed4:  d66d              beqz                    a2,-22                  # 0xffffffc080203ebe

----------------
IN: 
Priv: 1; Virt: 0
0xffffffc080203ed6:  a005              j                       32                      # 0xffffffc080203ef6

----------------
IN: 
Priv: 1; Virt: 0
0xffffffc080203ef6:  00eb75b3          and                     a1,s6,a4
0xffffffc080203efa:  ee043503          ld                      a0,-288(s0)
0xffffffc080203efe:  ecb43823          sd                      a1,-304(s0)
0xffffffc080203f02:  01a51f63          bne                     a0,s10,30               # 0xffffffc080203f20

----------------
IN: 
Priv: 1; Virt: 0
0xffffffc080203f20:  4b01              mv                      s6,zero
0xffffffc080203f22:  f4043823          sd                      zero,-176(s0)
0xffffffc080203f26:  ee043503          ld                      a0,-288(s0)
0xffffffc080203f2a:  f4a43c23          sd                      a0,-168(s0)
0xffffffc080203f2e:  f6b43023          sd                      a1,-160(s0)
0xffffffc080203f32:  f6a43423          sd                      a0,-152(s0)
0xffffffc080203f36:  f6043823          sd                      zero,-144(s0)
0xffffffc080203f3a:  f6a43c23          sd                      a0,-136(s0)
0xffffffc080203f3e:  4505              addi                    a0,zero,1
0xffffffc080203f40:  f8a43023          sd                      a0,-128(s0)
0xffffffc080203f44:  02651593          slli                    a1,a0,38
0xffffffc080203f48:  04058593          addi                    a1,a1,64
0xffffffc080203f4c:  f8b43423          sd                      a1,-120(s0)
0xffffffc080203f50:  f8a41823          sh                      a0,-112(s0)
0xffffffc080203f54:  f5040513          addi                    a0,s0,-176
0xffffffc080203f58:  00000097          auipc                   ra,0                    # 0xffffffc080203f58
0xffffffc080203f5c:  82a080e7          jalr                    ra,ra,-2006

----------------
IN: 
Priv: 1; Virt: 0
0xffffffc080203f7c:  0164f533          and                     a0,s1,s6
0xffffffc080203f80:  c921              beqz                    a0,80                   # 0xffffffc080203fd0

----------------
IN: 
Priv: 1; Virt: 0
0xffffffc080203fd0:  01bcb023          sd                      s11,0(s9)
0xffffffc080203fd4:  ed843503          ld                      a0,-296(s0)
0xffffffc080203fd8:  00acb423          sd                      a0,8(s9)
0xffffffc080203fdc:  8566              mv                      a0,s9
0xffffffc080203fde:  ef843583          ld                      a1,-264(s0)
0xffffffc080203fe2:  00000097          auipc                   ra,0                    # 0xffffffc080203fe2
0xffffffc080203fe6:  21e080e7          jalr                    ra,ra,542

----------------
IN: 
Priv: 1; Virt: 0
0xffffffc080204200:  7159              addi                    sp,sp,-112
0xffffffc080204202:  f486              sd                      ra,104(sp)
0xffffffc080204204:  f0a2              sd                      s0,96(sp)
0xffffffc080204206:  eca6              sd                      s1,88(sp)
0xffffffc080204208:  e8ca              sd                      s2,80(sp)
0xffffffc08020420a:  e4ce              sd                      s3,72(sp)
0xffffffc08020420c:  e0d2              sd                      s4,64(sp)
0xffffffc08020420e:  1880              addi                    s0,sp,112
0xffffffc080204210:  89aa              mv                      s3,a0
0xffffffc080204212:  00853a03          ld                      s4,8(a0)
0xffffffc080204216:  450d              addi                    a0,zero,3
0xffffffc080204218:  25457863          bleu                    s4,a0,592               # 0xffffffc080204468

----------------
IN: 
Priv: 1; Virt: 0
0xffffffc08020421c:  892e              mv                      s2,a1
0xffffffc08020421e:  0009b483          ld                      s1,0(s3)
0xffffffc080204222:  0014c503          lbu                     a0,1(s1)
0xffffffc080204226:  0004c583          lbu                     a1,0(s1)
0xffffffc08020422a:  0024c603          lbu                     a2,2(s1)
0xffffffc08020422e:  00348683          lb                      a3,3(s1)
0xffffffc080204232:  0522              slli                    a0,a0,8
0xffffffc080204234:  8d4d              or                      a0,a0,a1
0xffffffc080204236:  01061713          slli                    a4,a2,16
0xffffffc08020423a:  01869793          slli                    a5,a3,24
0xffffffc08020423e:  8f5d              or                      a4,a4,a5
0xffffffc080204240:  8d59              or                      a0,a0,a4
0xffffffc080204242:  6741              lui                     a4,16
0xffffffc080204244:  f007071b          addiw                   a4,a4,-256
0xffffffc080204248:  8f69              and                     a4,a4,a0
0xffffffc08020424a:  0087171b          slliw                   a4,a4,8
0xffffffc08020424e:  0185959b          slliw                   a1,a1,24
0xffffffc080204252:  0ff6f693          andi                    a3,a3,255
0xffffffc080204256:  0086161b          slliw                   a2,a2,8
0xffffffc08020425a:  8e55              or                      a2,a2,a3
0xffffffc08020425c:  8dd1              or                      a1,a1,a2
0xffffffc08020425e:  8dd9              or                      a1,a1,a4
0xffffffc080204260:  01000637          lui                     a2,4096
0xffffffc080204264:  f8b42e23          sw                      a1,-100(s0)
0xffffffc080204268:  20c51863          bne                     a0,a2,528               # 0xffffffc080204478

----------------
IN: 
Priv: 1; Virt: 0
0xffffffc08020426c:  1a71              addi                    s4,s4,-4
0xffffffc08020426e:  000a0c63          beqz                    s4,24                   # 0xffffffc080204286

----------------
IN: 
Priv: 1; Virt: 0
0xffffffc080204272:  4601              mv                      a2,zero
0xffffffc080204274:  0491              addi                    s1,s1,4
0xffffffc080204276:  00c48533          add                     a0,s1,a2
0xffffffc08020427a:  00054503          lbu                     a0,0(a0)
0xffffffc08020427e:  c10d              beqz                    a0,34                   # 0xffffffc0802042a0

----------------
IN: 
Priv: 1; Virt: 0
0xffffffc080204280:  0605              addi                    a2,a2,1
0xffffffc080204282:  feca1ae3          bne                     s4,a2,-12               # 0xffffffc080204276

----------------
IN: 
Priv: 1; Virt: 0
0xffffffc080204276:  00c48533          add                     a0,s1,a2
0xffffffc08020427a:  00054503          lbu                     a0,0(a0)
0xffffffc08020427e:  c10d              beqz                    a0,34                   # 0xffffffc0802042a0

----------------
IN: 
Priv: 1; Virt: 0
0xffffffc0802042a0:  fa040513          addi                    a0,s0,-96
0xffffffc0802042a4:  85a6              mv                      a1,s1
0xffffffc0802042a6:  00003097          auipc                   ra,3                    # 0xffffffc0802072a6
0xffffffc0802042aa:  e54080e7          jalr                    ra,ra,-428

----------------
IN: 
Priv: 1; Virt: 0
0xffffffc0802042ae:  fa043503          ld                      a0,-96(s0)
0xffffffc0802042b2:  20051763          bnez                    a0,526                  # 0xffffffc0802044c0

----------------
IN: 
Priv: 1; Virt: 0
0xffffffc0802042b6:  fb043503          ld                      a0,-80(s0)
0xffffffc0802042ba:  9971              andi                    a0,a0,-4
0xffffffc0802042bc:  00450593          addi                    a1,a0,4
0xffffffc0802042c0:  40ba0533          sub                     a0,s4,a1
0xffffffc0802042c4:  00aa3633          sltu                    a2,s4,a0
0xffffffc0802042c8:  167d              addi                    a2,a2,-1
0xffffffc0802042ca:  8d71              and                     a0,a0,a2
0xffffffc0802042cc:  00ba6463          bgtu                    a1,s4,8                 # 0xffffffc0802042d4

----------------
IN: 
Priv: 1; Virt: 0
0xffffffc0802042d0:  95a6              add                     a1,a1,s1
0xffffffc0802042d2:  a029              j                       10                      # 0xffffffc0802042dc

----------------
IN: 
Priv: 1; Virt: 0
0xffffffc0802042dc:  00b9b023          sd                      a1,0(s3)
0xffffffc0802042e0:  4591              addi                    a1,zero,4
0xffffffc0802042e2:  00a9b423          sd                      a0,8(s3)
0xffffffc0802042e6:  14b56963          bgtu                    a1,a0,338               # 0xffffffc080204438

----------------
IN: 
Priv: 1; Virt: 0
0xffffffc0802042ea:  0009b583          ld                      a1,0(s3)
0xffffffc0802042ee:  0015c603          lbu                     a2,1(a1)
0xffffffc0802042f2:  0005c683          lbu                     a3,0(a1)
0xffffffc0802042f6:  0025c703          lbu                     a4,2(a1)
0xffffffc0802042fa:  00358583          lb                      a1,3(a1)
0xffffffc0802042fe:  0622              slli                    a2,a2,8
0xffffffc080204300:  8e55              or                      a2,a2,a3
0xffffffc080204302:  0742              slli                    a4,a4,16
0xffffffc080204304:  05e2              slli                    a1,a1,24
0xffffffc080204306:  8dd9              or                      a1,a1,a4
0xffffffc080204308:  8dd1              or                      a1,a1,a2
0xffffffc08020430a:  03000a37          lui                     s4,12288
0xffffffc08020430e:  05459163          bne                     a1,s4,66                # 0xffffffc080204350

----------------
IN: 
Priv: 1; Virt: 0
0xffffffc080204312:  4491              addi                    s1,zero,4
0xffffffc080204314:  fa040513          addi                    a0,s0,-96
0xffffffc080204318:  85ce              mv                      a1,s3
0xffffffc08020431a:  864a              mv                      a2,s2
0xffffffc08020431c:  00000097          auipc                   ra,0                    # 0xffffffc08020431c
0xffffffc080204320:  1fc080e7          jalr                    ra,ra,508

----------------
IN: 
Priv: 1; Virt: 0
0xffffffc080204324:  0089b503          ld                      a0,8(s3)
0xffffffc080204328:  10956863          bgtu                    s1,a0,272               # 0xffffffc080204438

----------------
IN: 
Priv: 1; Virt: 0
0xffffffc08020432c:  0009b583          ld                      a1,0(s3)
0xffffffc080204330:  0015c603          lbu                     a2,1(a1)
0xffffffc080204334:  0005c683          lbu                     a3,0(a1)
0xffffffc080204338:  0025c703          lbu                     a4,2(a1)
0xffffffc08020433c:  00358583          lb                      a1,3(a1)
0xffffffc080204340:  0622              slli                    a2,a2,8
0xffffffc080204342:  8e55              or                      a2,a2,a3
0xffffffc080204344:  0742              slli                    a4,a4,16
0xffffffc080204346:  05e2              slli                    a1,a1,24
0xffffffc080204348:  8dd9              or                      a1,a1,a4
0xffffffc08020434a:  8dd1              or                      a1,a1,a2
0xffffffc08020434c:  fd4584e3          beq                     a1,s4,-56               # 0xffffffc080204314

----------------
IN: 
Priv: 1; Virt: 0
0xffffffc080204314:  fa040513          addi                    a0,s0,-96
0xffffffc080204318:  85ce              mv                      a1,s3
0xffffffc08020431a:  864a              mv                      a2,s2
0xffffffc08020431c:  00000097          auipc                   ra,0                    # 0xffffffc08020431c
0xffffffc080204320:  1fc080e7          jalr                    ra,ra,508

----------------
IN: 
Priv: 1; Virt: 0
0xffffffc080204350:  0009b583          ld                      a1,0(s3)
0xffffffc080204354:  0015c603          lbu                     a2,1(a1)
0xffffffc080204358:  0005c683          lbu                     a3,0(a1)
0xffffffc08020435c:  0025c703          lbu                     a4,2(a1)
0xffffffc080204360:  00358783          lb                      a5,3(a1)
0xffffffc080204364:  0622              slli                    a2,a2,8
0xffffffc080204366:  8e55              or                      a2,a2,a3
0xffffffc080204368:  0742              slli                    a4,a4,16
0xffffffc08020436a:  07e2              slli                    a5,a5,24
0xffffffc08020436c:  8f5d              or                      a4,a4,a5
0xffffffc08020436e:  8e59              or                      a2,a2,a4
0xffffffc080204370:  01000a37          lui                     s4,4096
0xffffffc080204374:  03461f63          bne                     a2,s4,62                # 0xffffffc0802043b2

----------------
IN: 
Priv: 1; Virt: 0
0xffffffc0802043b2:  040006b7          lui                     a3,16384
0xffffffc0802043b6:  02d61d63          bne                     a2,a3,58                # 0xffffffc0802043f0

----------------
IN: 
Priv: 1; Virt: 0
0xffffffc0802043f0:  00865693          srli                    a3,a2,8
0xffffffc0802043f4:  6741              lui                     a4,16
0xffffffc0802043f6:  f007071b          addiw                   a4,a4,-256
0xffffffc0802043fa:  8ef9              and                     a3,a3,a4
0xffffffc0802043fc:  0186579b          srliw                   a5,a2,24
0xffffffc080204400:  8edd              or                      a3,a3,a5
0xffffffc080204402:  8f71              and                     a4,a4,a2
0xffffffc080204404:  0087171b          slliw                   a4,a4,8
0xffffffc080204408:  0186179b          slliw                   a5,a2,24
0xffffffc08020440c:  8f5d              or                      a4,a4,a5
0xffffffc08020440e:  8ed9              or                      a3,a3,a4
0xffffffc080204410:  0591              addi                    a1,a1,4
0xffffffc080204412:  1571              addi                    a0,a0,-4
0xffffffc080204414:  00b9b023          sd                      a1,0(s3)
0xffffffc080204418:  00a9b423          sd                      a0,8(s3)
0xffffffc08020441c:  02000537          lui                     a0,8192
0xffffffc080204420:  f8d42e23          sw                      a3,-100(s0)
0xffffffc080204424:  0aa61663          bne                     a2,a0,172               # 0xffffffc0802044d0

----------------
IN: 
Priv: 1; Virt: 0
0xffffffc080204428:  70a6              ld                      ra,104(sp)
0xffffffc08020442a:  7406              ld                      s0,96(sp)
0xffffffc08020442c:  64e6              ld                      s1,88(sp)
0xffffffc08020442e:  6946              ld                      s2,80(sp)
0xffffffc080204430:  69a6              ld                      s3,72(sp)
0xffffffc080204432:  6a06              ld                      s4,64(sp)
0xffffffc080204434:  6165              addi                    sp,sp,112
0xffffffc080204436:  8082              ret                     

----------------
IN: 
Priv: 1; Virt: 0
0xffffffc080203fea:  b5b9              j                       -434                    # 0xffffffc080203e38

----------------
IN: 
Priv: 1; Virt: 0
0xffffffc080203e38:  00093023          sd                      zero,0(s2)
0xffffffc080203e3c:  60b6              ld                      ra,328(sp)
0xffffffc080203e3e:  6416              ld                      s0,320(sp)
0xffffffc080203e40:  74f2              ld                      s1,312(sp)
0xffffffc080203e42:  7952              ld                      s2,304(sp)
0xffffffc080203e44:  79b2              ld                      s3,296(sp)
0xffffffc080203e46:  7a12              ld                      s4,288(sp)
0xffffffc080203e48:  6af2              ld                      s5,280(sp)
0xffffffc080203e4a:  6b52              ld                      s6,272(sp)
0xffffffc080203e4c:  6bb2              ld                      s7,264(sp)
0xffffffc080203e4e:  6c12              ld                      s8,256(sp)
0xffffffc080203e50:  7cee              ld                      s9,248(sp)
0xffffffc080203e52:  7d4e              ld                      s10,240(sp)
0xffffffc080203e54:  7dae              ld                      s11,232(sp)
0xffffffc080203e56:  6171              addi                    sp,sp,336
0xffffffc080203e58:  8082              ret                     

----------------
IN: 
Priv: 1; Virt: 0
0xffffffc080204140:  f5043503          ld                      a0,-176(s0)
0xffffffc080204144:  e149              bnez                    a0,130                  # 0xffffffc0802041c6

----------------
IN: 
Priv: 1; Virt: 0
0xffffffc080204146:  008cb503          ld                      a0,8(s9)
0xffffffc08020414a:  cf4567e3          bgtu                    s4,a0,-786              # 0xffffffc080203e38

----------------
IN: 
Priv: 1; Virt: 0
0xffffffc08020414e:  000cb583          ld                      a1,0(s9)
0xffffffc080204152:  0015c603          lbu                     a2,1(a1)
0xffffffc080204156:  0005c683          lbu                     a3,0(a1)
0xffffffc08020415a:  0025c703          lbu                     a4,2(a1)
0xffffffc08020415e:  00358783          lb                      a5,3(a1)
0xffffffc080204162:  0622              slli                    a2,a2,8
0xffffffc080204164:  8e55              or                      a2,a2,a3
0xffffffc080204166:  0742              slli                    a4,a4,16
0xffffffc080204168:  07e2              slli                    a5,a5,24
0xffffffc08020416a:  8f5d              or                      a4,a4,a5
0xffffffc08020416c:  8e59              or                      a2,a2,a4
0xffffffc08020416e:  8856              mv                      a6,s5
0xffffffc080204170:  87a6              mv                      a5,s1
0xffffffc080204172:  fb360de3          beq                     a2,s3,-70               # 0xffffffc08020412c

----------------
IN: 
Priv: 1; Virt: 0
0xffffffc08020412c:  f5040513          addi                    a0,s0,-176
0xffffffc080204130:  85e6              mv                      a1,s9
0xffffffc080204132:  865a              mv                      a2,s6
0xffffffc080204134:  86e2              mv                      a3,s8
0xffffffc080204136:  875e              mv                      a4,s7
0xffffffc080204138:  00000097          auipc                   ra,0                    # 0xffffffc080204138
0xffffffc08020413c:  bae080e7          jalr                    ra,ra,-1106

----------------
IN: 
Priv: 1; Virt: 0
0xffffffc0802071ca:  00d587b3          add                     a5,a1,a3
0xffffffc0802071ce:  639c              ld                      a5,0(a5)
0xffffffc0802071d0:  00d08433          add                     s0,ra,a3
0xffffffc0802071d4:  6000              ld                      s0,0(s0)
0xffffffc0802071d6:  00011497          auipc                   s1,17                   # 0xffffffc0802181d6
0xffffffc0802071da:  e524b483          ld                      s1,-430(s1)
0xffffffc0802071de:  8fc1              or                      a5,a5,s0
0xffffffc0802071e0:  8fe5              and                     a5,a5,s1
0xffffffc0802071e2:  e781              bnez                    a5,8                    # 0xffffffc0802071ea

----------------
IN: 
Priv: 1; Virt: 0
0xffffffc0802071e4:  06c1              addi                    a3,a3,16
0xffffffc0802071e6:  fee6e2e3          bgtu                    a4,a3,-28               # 0xffffffc0802071ca

----------------
IN: 
Priv: 1; Virt: 0
0xffffffc080207206:  a0e1              j                       200                     # 0xffffffc0802072ce

----------------
IN: 
Priv: 1; Virt: 0
0xffffffc080203892:  85b6              mv                      a1,a3
0xffffffc080203894:  00003097          auipc                   ra,3                    # 0xffffffc080206894
0xffffffc080203898:  6b8080e7          jalr                    ra,ra,1720

----------------
IN: 
Priv: 1; Virt: 0
0xffffffc080206f4c:  00758713          addi                    a4,a1,7
0xffffffc080206f50:  9b61              andi                    a4,a4,-8
0xffffffc080206f52:  0ff57813          andi                    a6,a0,255
0xffffffc080206f56:  02b70763          beq                     a4,a1,46                # 0xffffffc080206f84

----------------
IN: 
Priv: 1; Virt: 0
0xffffffc080206f5a:  40b707b3          sub                     a5,a4,a1
0xffffffc080206f5e:  00c7e363          bgtu                    a2,a5,6                 # 0xffffffc080206f64

----------------
IN: 
Priv: 1; Virt: 0
0xffffffc080206f64:  c385              beqz                    a5,32                   # 0xffffffc080206f84

----------------
IN: 
Priv: 1; Virt: 0
0xffffffc080206f66:  4681              mv                      a3,zero
0xffffffc080206f68:  00d58533          add                     a0,a1,a3
0xffffffc080206f6c:  00054503          lbu                     a0,0(a0)
0xffffffc080206f70:  09050f63          beq                     a0,a6,158               # 0xffffffc08020700e

----------------
IN: 
Priv: 1; Virt: 0
0xffffffc080206f74:  0685              addi                    a3,a3,1
0xffffffc080206f76:  fed799e3          bne                     a5,a3,-14               # 0xffffffc080206f68

----------------
IN: 
Priv: 1; Virt: 0
0xffffffc080206f68:  00d58533          add                     a0,a1,a3
0xffffffc080206f6c:  00054503          lbu                     a0,0(a0)
0xffffffc080206f70:  09050f63          beq                     a0,a6,158               # 0xffffffc08020700e

----------------
IN: 
Priv: 1; Virt: 0
0xffffffc080206f7a:  ff060893          addi                    a7,a2,-16
0xffffffc080206f7e:  00f8f663          bleu                    a5,a7,12                # 0xffffffc080206f8a

----------------
IN: 
Priv: 1; Virt: 0
0xffffffc080206f8a:  feff0537          lui                     a0,-4112
0xffffffc080206f8e:  eff5039b          addiw                   t2,a0,-257
0xffffffc080206f92:  02039513          slli                    a0,t2,32
0xffffffc080206f96:  93aa              add                     t2,t2,a0
0xffffffc080206f98:  01010537          lui                     a0,4112
0xffffffc080206f9c:  1015051b          addiw                   a0,a0,257
0xffffffc080206fa0:  02051313          slli                    t1,a0,32
0xffffffc080206fa4:  00011697          auipc                   a3,17                   # 0xffffffc080217fa4
0xffffffc080206fa8:  0746b283          ld                      t0,116(a3)
0xffffffc080206fac:  951a              add                     a0,a0,t1
0xffffffc080206fae:  02a80e33          mul                     t3,a6,a0
0xffffffc080206fb2:  00858313          addi                    t1,a1,8
0xffffffc080206fb6:  00f58733          add                     a4,a1,a5
0xffffffc080206fba:  6318              ld                      a4,0(a4)
0xffffffc080206fbc:  00f30533          add                     a0,t1,a5
0xffffffc080206fc0:  6108              ld                      a0,0(a0)
0xffffffc080206fc2:  01c74733          xor                     a4,a4,t3
0xffffffc080206fc6:  007706b3          add                     a3,a4,t2
0xffffffc080206fca:  fff74713          not                     a4,a4
0xffffffc080206fce:  8ef9              and                     a3,a3,a4
0xffffffc080206fd0:  01c54533          xor                     a0,a0,t3
0xffffffc080206fd4:  00750733          add                     a4,a0,t2
0xffffffc080206fd8:  fff54513          not                     a0,a0
0xffffffc080206fdc:  8d79              and                     a0,a0,a4
0xffffffc080206fde:  8d55              or                      a0,a0,a3
0xffffffc080206fe0:  00557533          and                     a0,a0,t0
0xffffffc080206fe4:  e501              bnez                    a0,8                    # 0xffffffc080206fec

----------------
IN: 
Priv: 1; Virt: 0
0xffffffc080206fec:  00c78b63          beq                     a5,a2,22                # 0xffffffc080207002

----------------
IN: 
Priv: 1; Virt: 0
0xffffffc080206ff0:  00f58533          add                     a0,a1,a5
0xffffffc080206ff4:  00054503          lbu                     a0,0(a0)
0xffffffc080206ff8:  01050863          beq                     a0,a6,16                # 0xffffffc080207008

----------------
IN: 
Priv: 1; Virt: 0
0xffffffc080206ffc:  0785              addi                    a5,a5,1

----------------
IN: 
Priv: 1; Virt: 0
0xffffffc080206ffe:  fef619e3          bne                     a2,a5,-14               # 0xffffffc080206ff0

----------------
IN: 
Priv: 1; Virt: 0
0xffffffc080207008:  4505              addi                    a0,zero,1
0xffffffc08020700a:  85be              mv                      a1,a5
0xffffffc08020700c:  8082              ret                     

----------------
IN: 
Priv: 1; Virt: 0
0xffffffc08020389c:  01a50663          beq                     a0,s10,12               # 0xffffffc0802038a8

----------------
IN: 
Priv: 1; Virt: 0
0xffffffc080204062:  ed043503          ld                      a0,-304(s0)
0xffffffc080204066:  00a93023          sd                      a0,0(s2)
0xffffffc08020406a:  ee043503          ld                      a0,-288(s0)
0xffffffc08020406e:  00a93423          sd                      a0,8(s2)
0xffffffc080204072:  01793823          sd                      s7,16(s2)
0xffffffc080204076:  00f93c23          sd                      a5,24(s2)
0xffffffc08020407a:  03093023          sd                      a6,32(s2)
0xffffffc08020407e:  ee843503          ld                      a0,-280(s0)
0xffffffc080204082:  02a93423          sd                      a0,40(s2)
0xffffffc080204086:  ef043503          ld                      a0,-272(s0)
0xffffffc08020408a:  02a93823          sd                      a0,48(s2)
0xffffffc08020408e:  b37d              j                       -594                    # 0xffffffc080203e3c

----------------
IN: 
Priv: 1; Virt: 0
0xffffffc080203e3c:  60b6              ld                      ra,328(sp)
0xffffffc080203e3e:  6416              ld                      s0,320(sp)
0xffffffc080203e40:  74f2              ld                      s1,312(sp)
0xffffffc080203e42:  7952              ld                      s2,304(sp)
0xffffffc080203e44:  79b2              ld                      s3,296(sp)
0xffffffc080203e46:  7a12              ld                      s4,288(sp)
0xffffffc080203e48:  6af2              ld                      s5,280(sp)
0xffffffc080203e4a:  6b52              ld                      s6,272(sp)
0xffffffc080203e4c:  6bb2              ld                      s7,264(sp)
0xffffffc080203e4e:  6c12              ld                      s8,256(sp)
0xffffffc080203e50:  7cee              ld                      s9,248(sp)
0xffffffc080203e52:  7d4e              ld                      s10,240(sp)
0xffffffc080203e54:  7dae              ld                      s11,232(sp)
0xffffffc080203e56:  6171              addi                    sp,sp,336
0xffffffc080203e58:  8082              ret                     

----------------
IN: 
Priv: 1; Virt: 0
0xffffffc0802041c6:  f8043503          ld                      a0,-128(s0)
0xffffffc0802041ca:  f7843583          ld                      a1,-136(s0)
0xffffffc0802041ce:  f7043603          ld                      a2,-144(s0)
0xffffffc0802041d2:  02a93823          sd                      a0,48(s2)
0xffffffc0802041d6:  02b93423          sd                      a1,40(s2)
0xffffffc0802041da:  02c93023          sd                      a2,32(s2)
0xffffffc0802041de:  f6843503          ld                      a0,-152(s0)
0xffffffc0802041e2:  f6043583          ld                      a1,-160(s0)
0xffffffc0802041e6:  f5843603          ld                      a2,-168(s0)
0xffffffc0802041ea:  f5043683          ld                      a3,-176(s0)
0xffffffc0802041ee:  00a93c23          sd                      a0,24(s2)
0xffffffc0802041f2:  00b93823          sd                      a1,16(s2)
0xffffffc0802041f6:  00c93423          sd                      a2,8(s2)
0xffffffc0802041fa:  00d93023          sd                      a3,0(s2)
0xffffffc0802041fe:  b93d              j                       -962                    # 0xffffffc080203e3c

----------------
IN: 
Priv: 1; Virt: 0
0xffffffc080204dae:  f0043503          ld                      a0,-256(s0)
0xffffffc080204db2:  cd15              beqz                    a0,60                   # 0xffffffc080204dee

----------------
IN: 
Priv: 1; Virt: 0
0xffffffc080204db4:  f3043503          ld                      a0,-208(s0)
0xffffffc080204db8:  f2843583          ld                      a1,-216(s0)
0xffffffc080204dbc:  f2043603          ld                      a2,-224(s0)
0xffffffc080204dc0:  02a93823          sd                      a0,48(s2)
0xffffffc080204dc4:  02b93423          sd                      a1,40(s2)
0xffffffc080204dc8:  02c93023          sd                      a2,32(s2)
0xffffffc080204dcc:  f1843503          ld                      a0,-232(s0)
0xffffffc080204dd0:  f1043583          ld                      a1,-240(s0)
0xffffffc080204dd4:  f0843603          ld                      a2,-248(s0)
0xffffffc080204dd8:  f0043683          ld                      a3,-256(s0)
0xffffffc080204ddc:  00a93c23          sd                      a0,24(s2)
0xffffffc080204de0:  00b93823          sd                      a1,16(s2)
0xffffffc080204de4:  00c93423          sd                      a2,8(s2)
0xffffffc080204de8:  00d93023          sd                      a3,0(s2)
0xffffffc080204dec:  a079              j                       142                     # 0xffffffc080204e7a

----------------
IN: 
Priv: 1; Virt: 0
0xffffffc080204e7a:  70ee              ld                      ra,248(sp)
0xffffffc080204e7c:  744e              ld                      s0,240(sp)
0xffffffc080204e7e:  74ae              ld                      s1,232(sp)
0xffffffc080204e80:  790e              ld                      s2,224(sp)
0xffffffc080204e82:  69ee              ld                      s3,216(sp)
0xffffffc080204e84:  6a4e              ld                      s4,208(sp)
0xffffffc080204e86:  6aae              ld                      s5,200(sp)
0xffffffc080204e88:  6b0e              ld                      s6,192(sp)
0xffffffc080204e8a:  6111              addi                    sp,sp,256
0xffffffc080204e8c:  8082              ret                     

----------------
IN: 
Priv: 1; Virt: 0
0xffffffc080204b72:  f7043503          ld                      a0,-144(s0)
0xffffffc080204b76:  14050c63          beqz                    a0,344                  # 0xffffffc080204cce

----------------
IN: 
Priv: 1; Virt: 0
0xffffffc080204b7a:  f7843503          ld                      a0,-136(s0)
0xffffffc080204b7e:  f7043583          ld                      a1,-144(s0)
0xffffffc080204b82:  f6a43423          sd                      a0,-152(s0)
0xffffffc080204b86:  f6b43023          sd                      a1,-160(s0)
0xffffffc080204b8a:  f9843503          ld                      a0,-104(s0)
0xffffffc080204b8e:  f8043b83          ld                      s7,-128(s0)
0xffffffc080204b92:  fa043583          ld                      a1,-96(s0)
0xffffffc080204b96:  f8843983          ld                      s3,-120(s0)
0xffffffc080204b9a:  f4a43823          sd                      a0,-176(s0)
0xffffffc080204b9e:  f9043a03          ld                      s4,-112(s0)
0xffffffc080204ba2:  f4b43c23          sd                      a1,-168(s0)
0xffffffc080204ba6:  fb343423          sd                      s3,-88(s0)
0xffffffc080204baa:  4811              addi                    a6,zero,4
0xffffffc080204bac:  fb443823          sd                      s4,-80(s0)
0xffffffc080204bb0:  030a6e63          bgtu                    a6,s4,60                # 0xffffffc080204bec

----------------
IN: 
Priv: 1; Virt: 0
0xffffffc080204bb4:  040006b7          lui                     a3,16384
0xffffffc080204bb8:  8552              mv                      a0,s4
0xffffffc080204bba:  85ce              mv                      a1,s3
0xffffffc080204bbc:  0015c703          lbu                     a4,1(a1)
0xffffffc080204bc0:  0005c783          lbu                     a5,0(a1)
0xffffffc080204bc4:  0025c603          lbu                     a2,2(a1)
0xffffffc080204bc8:  00358483          lb                      s1,3(a1)
0xffffffc080204bcc:  0722              slli                    a4,a4,8
0xffffffc080204bce:  8f5d              or                      a4,a4,a5
0xffffffc080204bd0:  0642              slli                    a2,a2,16
0xffffffc080204bd2:  04e2              slli                    s1,s1,24
0xffffffc080204bd4:  8e45              or                      a2,a2,s1
0xffffffc080204bd6:  8f51              or                      a4,a4,a2
0xffffffc080204bd8:  02d71263          bne                     a4,a3,36                # 0xffffffc080204bfc

----------------
IN: 
Priv: 1; Virt: 0
0xffffffc080204bfc:  03000ab7          lui                     s5,12288
0xffffffc080204c00:  05571263          bne                     a4,s5,68                # 0xffffffc080204c44

----------------
IN: 
Priv: 1; Virt: 0
0xffffffc080204c04:  4b11              addi                    s6,zero,4
0xffffffc080204c06:  f7040513          addi                    a0,s0,-144
0xffffffc080204c0a:  fa840593          addi                    a1,s0,-88
0xffffffc080204c0e:  865e              mv                      a2,s7
0xffffffc080204c10:  00000097          auipc                   ra,0                    # 0xffffffc080204c10
0xffffffc080204c14:  908080e7          jalr                    ra,ra,-1784

----------------
IN: 
Priv: 1; Virt: 0
0xffffffc080204c18:  fb043503          ld                      a0,-80(s0)
0xffffffc080204c1c:  0b656163          bgtu                    s6,a0,162               # 0xffffffc080204cbe

----------------
IN: 
Priv: 1; Virt: 0
0xffffffc080204c20:  fa843583          ld                      a1,-88(s0)
0xffffffc080204c24:  0015c603          lbu                     a2,1(a1)
0xffffffc080204c28:  0005c683          lbu                     a3,0(a1)
0xffffffc080204c2c:  0025c703          lbu                     a4,2(a1)
0xffffffc080204c30:  00358783          lb                      a5,3(a1)
0xffffffc080204c34:  0622              slli                    a2,a2,8
0xffffffc080204c36:  8e55              or                      a2,a2,a3
0xffffffc080204c38:  0742              slli                    a4,a4,16
0xffffffc080204c3a:  07e2              slli                    a5,a5,24
0xffffffc080204c3c:  8f5d              or                      a4,a4,a5
0xffffffc080204c3e:  8e59              or                      a2,a2,a4
0xffffffc080204c40:  fd5603e3          beq                     a2,s5,-58               # 0xffffffc080204c06

----------------
IN: 
Priv: 1; Virt: 0
0xffffffc080204c06:  f7040513          addi                    a0,s0,-144
0xffffffc080204c0a:  fa840593          addi                    a1,s0,-88
0xffffffc080204c0e:  865e              mv                      a2,s7
0xffffffc080204c10:  00000097          auipc                   ra,0                    # 0xffffffc080204c10
0xffffffc080204c14:  908080e7          jalr                    ra,ra,-1784

----------------
IN: 
Priv: 1; Virt: 0
0xffffffc080204c44:  f6043603          ld                      a2,-160(s0)
0xffffffc080204c48:  f6843683          ld                      a3,-152(s0)
0xffffffc080204c4c:  02b93c23          sd                      a1,56(s2)
0xffffffc080204c50:  04a93023          sd                      a0,64(s2)
0xffffffc080204c54:  04c93423          sd                      a2,72(s2)
0xffffffc080204c58:  04d93823          sd                      a3,80(s2)
0xffffffc080204c5c:  f5043503          ld                      a0,-176(s0)
0xffffffc080204c60:  f5843583          ld                      a1,-168(s0)
0xffffffc080204c64:  05793c23          sd                      s7,88(s2)
0xffffffc080204c68:  07393023          sd                      s3,96(s2)
0xffffffc080204c6c:  06a93823          sd                      a0,112(s2)
0xffffffc080204c70:  06b93c23          sd                      a1,120(s2)
0xffffffc080204c74:  f6843503          ld                      a0,-152(s0)
0xffffffc080204c78:  f6043583          ld                      a1,-160(s0)
0xffffffc080204c7c:  07493423          sd                      s4,104(s2)
0xffffffc080204c80:  08090023          sb                      zero,128(s2)
0xffffffc080204c84:  00a93423          sd                      a0,8(s2)
0xffffffc080204c88:  00b93023          sd                      a1,0(s2)
0xffffffc080204c8c:  01793823          sd                      s7,16(s2)
0xffffffc080204c90:  f5043503          ld                      a0,-176(s0)
0xffffffc080204c94:  f5843583          ld                      a1,-168(s0)
0xffffffc080204c98:  01393c23          sd                      s3,24(s2)
0xffffffc080204c9c:  03493023          sd                      s4,32(s2)
0xffffffc080204ca0:  02a93423          sd                      a0,40(s2)
0xffffffc080204ca4:  02b93823          sd                      a1,48(s2)
0xffffffc080204ca8:  70aa              ld                      ra,168(sp)
0xffffffc080204caa:  740a              ld                      s0,160(sp)
0xffffffc080204cac:  64ea              ld                      s1,152(sp)
0xffffffc080204cae:  694a              ld                      s2,144(sp)
0xffffffc080204cb0:  69aa              ld                      s3,136(sp)
0xffffffc080204cb2:  6a0a              ld                      s4,128(sp)
0xffffffc080204cb4:  7ae6              ld                      s5,120(sp)
0xffffffc080204cb6:  7b46              ld                      s6,112(sp)
0xffffffc080204cb8:  7ba6              ld                      s7,104(sp)
0xffffffc080204cba:  614d              addi                    sp,sp,176
0xffffffc080204cbc:  8082              ret                     

----------------
IN: 
Priv: 1; Virt: 0
0xffffffc080202b44:  f3840593          addi                    a1,s0,-200
0xffffffc080202b48:  f8840513          addi                    a0,s0,-120
0xffffffc080202b4c:  05000613          addi                    a2,zero,80
0xffffffc080202b50:  00005097          auipc                   ra,5                    # 0xffffffc080207b50
0xffffffc080202b54:  5e4080e7          jalr                    ra,ra,1508

----------------
IN: 
Priv: 1; Virt: 0
0xffffffc080208134:  00000317          auipc                   t1,0                    # 0xffffffc080208134
0xffffffc080208138:  ec230067          jalr                    zero,t1,-318

----------------
IN: 
Priv: 1; Virt: 0
0xffffffc080207ff6:  46c1              addi                    a3,zero,16
0xffffffc080207ff8:  06d66b63          bgtu                    a3,a2,118               # 0xffffffc08020806e

----------------
IN: 
Priv: 1; Virt: 0
0xffffffc080207ffc:  40a006bb          negw                    a3,a0

----------------
IN: 
Priv: 1; Virt: 0
0xffffffc080208000:  0076f813          andi                    a6,a3,7
0xffffffc080208004:  010503b3          add                     t2,a0,a6
0xffffffc080208008:  00080c63          beqz                    a6,24                   # 0xffffffc080208020

----------------
IN: 
Priv: 1; Virt: 0
0xffffffc080208020:  010588b3          add                     a7,a1,a6
0xffffffc080208024:  41060833          sub                     a6,a2,a6
0xffffffc080208028:  ff887293          andi                    t0,a6,-8
0xffffffc08020802c:  0078f593          andi                    a1,a7,7
0xffffffc080208030:  005386b3          add                     a3,t2,t0
0xffffffc080208034:  c1a1              beqz                    a1,64                   # 0xffffffc080208074

----------------
IN: 
Priv: 1; Virt: 0
0xffffffc080208074:  00505a63          blez                    t0,20                   # 0xffffffc080208088

----------------
IN: 
Priv: 1; Virt: 0
0xffffffc080208078:  85c6              mv                      a1,a7
0xffffffc08020807a:  6190              ld                      a2,0(a1)
0xffffffc08020807c:  00c3b023          sd                      a2,0(t2)
0xffffffc080208080:  03a1              addi                    t2,t2,8
0xffffffc080208082:  05a1              addi                    a1,a1,8
0xffffffc080208084:  fed3ebe3          bgtu                    a3,t2,-10               # 0xffffffc08020807a

----------------
IN: 
Priv: 1; Virt: 0
0xffffffc08020807a:  6190              ld                      a2,0(a1)
0xffffffc08020807c:  00c3b023          sd                      a2,0(t2)
0xffffffc080208080:  03a1              addi                    t2,t2,8
0xffffffc080208082:  05a1              addi                    a1,a1,8
0xffffffc080208084:  fed3ebe3          bgtu                    a3,t2,-10               # 0xffffffc08020807a

----------------
IN: 
Priv: 1; Virt: 0
0xffffffc080208088:  005885b3          add                     a1,a7,t0
0xffffffc08020808c:  00787613          andi                    a2,a6,7
0xffffffc080208090:  ca11              beqz                    a2,20                   # 0xffffffc0802080a4

----------------
IN: 
Priv: 1; Virt: 0
0xffffffc0802080a4:  8082              ret                     

----------------
IN: 
Priv: 1; Virt: 0
0xffffffc080202b58:  f8840513          addi                    a0,s0,-120
0xffffffc080202b5c:  00000097          auipc                   ra,0                    # 0xffffffc080202b5c
0xffffffc080202b60:  c66080e7          jalr                    ra,ra,-922

----------------
IN: 
Priv: 1; Virt: 0
0xffffffc0802027c2:  7119              addi                    sp,sp,-128
0xffffffc0802027c4:  fc86              sd                      ra,120(sp)
0xffffffc0802027c6:  f8a2              sd                      s0,112(sp)
0xffffffc0802027c8:  f4a6              sd                      s1,104(sp)
0xffffffc0802027ca:  f0ca              sd                      s2,96(sp)
0xffffffc0802027cc:  ecce              sd                      s3,88(sp)
0xffffffc0802027ce:  e8d2              sd                      s4,80(sp)
0xffffffc0802027d0:  e4d6              sd                      s5,72(sp)
0xffffffc0802027d2:  e0da              sd                      s6,64(sp)
0xffffffc0802027d4:  fc5e              sd                      s7,56(sp)
0xffffffc0802027d6:  f862              sd                      s8,48(sp)
0xffffffc0802027d8:  f466              sd                      s9,40(sp)
0xffffffc0802027da:  f06a              sd                      s10,32(sp)
0xffffffc0802027dc:  ec6e              sd                      s11,24(sp)
0xffffffc0802027de:  0100              addi                    s0,sp,128
0xffffffc0802027e0:  8aaa              mv                      s5,a0
0xffffffc0802027e2:  6508              ld                      a0,8(a0)
0xffffffc0802027e4:  18050863          beqz                    a0,400                  # 0xffffffc080202974

----------------
IN: 
Priv: 1; Virt: 0
0xffffffc0802027e8:  4901              mv                      s2,zero
0xffffffc0802027ea:  4b91              addi                    s7,zero,4
0xffffffc0802027ec:  4c05              addi                    s8,zero,1
0xffffffc0802027ee:  4cc1              addi                    s9,zero,16
0xffffffc0802027f0:  04000d13          addi                    s10,zero,64
0xffffffc0802027f4:  0000a517          auipc                   a0,10                   # 0xffffffc08020c7f4
0xffffffc0802027f8:  4fc50513          addi                    a0,a0,1276
0xffffffc0802027fc:  f8a43023          sd                      a0,-128(s0)
0xffffffc080202800:  048ac503          lbu                     a0,72(s5)
0xffffffc080202804:  16051963          bnez                    a0,370                  # 0xffffffc080202976

----------------
IN: 
Priv: 1; Virt: 0
0xffffffc080202808:  8556              mv                      a0,s5
0xffffffc08020280a:  00003097          auipc                   ra,3                    # 0xffffffc08020580a
0xffffffc08020280e:  b5c080e7          jalr                    ra,ra,-1188

----------------
IN: 
Priv: 1; Virt: 0
0xffffffc080205366:  650c              ld                      a1,8(a0)
0xffffffc080205368:  4611              addi                    a2,zero,4
0xffffffc08020536a:  00c5f463          bleu                    a2,a1,8                 # 0xffffffc080205372

----------------
IN: 
Priv: 1; Virt: 0
0xffffffc080205372:  1141              addi                    sp,sp,-16
0xffffffc080205374:  e406              sd                      ra,8(sp)
0xffffffc080205376:  e022              sd                      s0,0(sp)
0xffffffc080205378:  0800              addi                    s0,sp,16
0xffffffc08020537a:  6108              ld                      a0,0(a0)
0xffffffc08020537c:  00350583          lb                      a1,3(a0)
0xffffffc080205380:  00254603          lbu                     a2,2(a0)
0xffffffc080205384:  00054683          lbu                     a3,0(a0)
0xffffffc080205388:  00154503          lbu                     a0,1(a0)
0xffffffc08020538c:  0ff5f593          andi                    a1,a1,255
0xffffffc080205390:  0622              slli                    a2,a2,8
0xffffffc080205392:  8dd1              or                      a1,a1,a2
0xffffffc080205394:  0542              slli                    a0,a0,16
0xffffffc080205396:  0186961b          slliw                   a2,a3,24
0xffffffc08020539a:  8d51              or                      a0,a0,a2
0xffffffc08020539c:  8dc9              or                      a1,a1,a0
0xffffffc08020539e:  4505              addi                    a0,zero,1
0xffffffc0802053a0:  60a2              ld                      ra,8(sp)
0xffffffc0802053a2:  6402              ld                      s0,0(sp)
0xffffffc0802053a4:  0141              addi                    sp,sp,16
0xffffffc0802053a6:  8082              ret                     

----------------
IN: 
Priv: 1; Virt: 0
0xffffffc080202812:  2501              sext.w                  a0,a0
0xffffffc080202814:  16050163          beqz                    a0,354                  # 0xffffffc080202976

----------------
IN: 
Priv: 1; Virt: 0
0xffffffc080202818:  2581              sext.w                  a1,a1
0xffffffc08020281a:  03759063          bne                     a1,s7,32                # 0xffffffc08020283a

----------------
IN: 
Priv: 1; Virt: 0
0xffffffc08020283a:  8556              mv                      a0,s5
0xffffffc08020283c:  00003097          auipc                   ra,3                    # 0xffffffc08020583c
0xffffffc080202840:  b2a080e7          jalr                    ra,ra,-1238

----------------
IN: 
Priv: 1; Virt: 0
0xffffffc080202844:  2501              sext.w                  a0,a0
0xffffffc080202846:  12050863          beqz                    a0,304                  # 0xffffffc080202976

----------------
IN: 
Priv: 1; Virt: 0
0xffffffc08020284a:  2581              sext.w                  a1,a1
0xffffffc08020284c:  15859563          bne                     a1,s8,330               # 0xffffffc080202996

----------------
IN: 
Priv: 1; Virt: 0
0xffffffc080202850:  000abd83          ld                      s11,0(s5)
0xffffffc080202854:  008ab983          ld                      s3,8(s5)
0xffffffc080202858:  4591              addi                    a1,zero,4
0xffffffc08020285a:  8556              mv                      a0,s5
0xffffffc08020285c:  00003097          auipc                   ra,3                    # 0xffffffc08020585c
0xffffffc080202860:  ad6080e7          jalr                    ra,ra,-1322

----------------
IN: 
Priv: 1; Virt: 0
0xffffffc080205332:  1141              addi                    sp,sp,-16
0xffffffc080205334:  e406              sd                      ra,8(sp)
0xffffffc080205336:  e022              sd                      s0,0(sp)
0xffffffc080205338:  0800              addi                    s0,sp,16
0xffffffc08020533a:  6514              ld                      a3,8(a0)
0xffffffc08020533c:  40b68633          sub                     a2,a3,a1
0xffffffc080205340:  00c6b733          sltu                    a4,a3,a2
0xffffffc080205344:  177d              addi                    a4,a4,-1
0xffffffc080205346:  8e79              and                     a2,a2,a4
0xffffffc080205348:  00b6e563          bgtu                    a1,a3,10                # 0xffffffc080205352

----------------
IN: 
Priv: 1; Virt: 0
0xffffffc08020534c:  6114              ld                      a3,0(a0)
0xffffffc08020534e:  95b6              add                     a1,a1,a3
0xffffffc080205350:  a029              j                       10                      # 0xffffffc08020535a

----------------
IN: 
Priv: 1; Virt: 0
0xffffffc08020535a:  e10c              sd                      a1,0(a0)
0xffffffc08020535c:  e510              sd                      a2,8(a0)
0xffffffc08020535e:  60a2              ld                      ra,8(sp)
0xffffffc080205360:  6402              ld                      s0,0(sp)
0xffffffc080205362:  0141              addi                    sp,sp,16
0xffffffc080205364:  8082              ret                     

----------------
IN: 
Priv: 1; Virt: 0
0xffffffc080202864:  000ab503          ld                      a0,0(s5)
0xffffffc080202868:  008ab583          ld                      a1,8(s5)
0xffffffc08020286c:  00003097          auipc                   ra,3                    # 0xffffffc08020586c
0xffffffc080202870:  962080e7          jalr                    ra,ra,-1694

----------------
IN: 
Priv: 1; Virt: 0
0xffffffc0802051ce:  1141              addi                    sp,sp,-16
0xffffffc0802051d0:  e406              sd                      ra,8(sp)
0xffffffc0802051d2:  e022              sd                      s0,0(sp)
0xffffffc0802051d4:  0800              addi                    s0,sp,16
0xffffffc0802051d6:  c999              beqz                    a1,22                   # 0xffffffc0802051ec

----------------
IN: 
Priv: 1; Virt: 0
0xffffffc0802051d8:  862e              mv                      a2,a1
0xffffffc0802051da:  4581              mv                      a1,zero
0xffffffc0802051dc:  00b506b3          add                     a3,a0,a1
0xffffffc0802051e0:  0006c683          lbu                     a3,0(a3)
0xffffffc0802051e4:  c689              beqz                    a3,10                   # 0xffffffc0802051ee

----------------
IN: 
Priv: 1; Virt: 0
0xffffffc0802051e6:  0585              addi                    a1,a1,1
0xffffffc0802051e8:  feb61ae3          bne                     a2,a1,-12               # 0xffffffc0802051dc

----------------
IN: 
Priv: 1; Virt: 0
0xffffffc0802051dc:  00b506b3          add                     a3,a0,a1
0xffffffc0802051e0:  0006c683          lbu                     a3,0(a3)
0xffffffc0802051e4:  c689              beqz                    a3,10                   # 0xffffffc0802051ee

----------------
IN: 
Priv: 1; Virt: 0
0xffffffc0802051ee:  60a2              ld                      ra,8(sp)
0xffffffc0802051f0:  6402              ld                      s0,0(sp)
0xffffffc0802051f2:  0141              addi                    sp,sp,16
0xffffffc0802051f4:  8082              ret                     

----------------
IN: 
Priv: 1; Virt: 0
0xffffffc080202874:  12050563          beqz                    a0,298                  # 0xffffffc08020299e

----------------
IN: 
Priv: 1; Virt: 0
0xffffffc080202878:  f8a43423          sd                      a0,-120(s0)
0xffffffc08020287c:  f8b43823          sd                      a1,-112(s0)
0xffffffc080202880:  f8840513          addi                    a0,s0,-120
0xffffffc080202884:  00003097          auipc                   ra,3                    # 0xffffffc080205884
0xffffffc080202888:  972080e7          jalr                    ra,ra,-1678

----------------
IN: 
Priv: 1; Virt: 0
0xffffffc0802051f6:  7179              addi                    sp,sp,-48
0xffffffc0802051f8:  f406              sd                      ra,40(sp)
0xffffffc0802051fa:  f022              sd                      s0,32(sp)
0xffffffc0802051fc:  1800              addi                    s0,sp,48
0xffffffc0802051fe:  610c              ld                      a1,0(a0)
0xffffffc080205200:  6510              ld                      a2,8(a0)
0xffffffc080205202:  fd840513          addi                    a0,s0,-40
0xffffffc080205206:  00002097          auipc                   ra,2                    # 0xffffffc080207206
0xffffffc08020520a:  ef4080e7          jalr                    ra,ra,-268

----------------
IN: 
Priv: 1; Virt: 0
0xffffffc08020520e:  fd843503          ld                      a0,-40(s0)
0xffffffc080205212:  fe043603          ld                      a2,-32(s0)
0xffffffc080205216:  fe843583          ld                      a1,-24(s0)
0xffffffc08020521a:  00a03533          snez                    a0,a0
0xffffffc08020521e:  157d              addi                    a0,a0,-1
0xffffffc080205220:  8d71              and                     a0,a0,a2
0xffffffc080205222:  70a2              ld                      ra,40(sp)
0xffffffc080205224:  7402              ld                      s0,32(sp)
0xffffffc080205226:  6145              addi                    sp,sp,48
0xffffffc080205228:  8082              ret                     

----------------
IN: 
Priv: 1; Virt: 0
0xffffffc08020288c:  c56d              beqz                    a0,234                  # 0xffffffc080202976

----------------
IN: 
Priv: 1; Virt: 0
0xffffffc08020288e:  8a2a              mv                      s4,a0
0xffffffc080202890:  8b2e              mv                      s6,a1
0xffffffc080202892:  00158493          addi                    s1,a1,1
0xffffffc080202896:  8556              mv                      a0,s5
0xffffffc080202898:  85a6              mv                      a1,s1
0xffffffc08020289a:  00003097          auipc                   ra,3                    # 0xffffffc08020589a
0xffffffc08020289e:  a98080e7          jalr                    ra,ra,-1384

----------------
IN: 
Priv: 1; Virt: 0
0xffffffc0802028a2:  888d              andi                    s1,s1,3
0xffffffc0802028a4:  c881              beqz                    s1,16                   # 0xffffffc0802028b4

----------------
IN: 
Priv: 1; Virt: 0
0xffffffc0802028a6:  409b85b3          sub                     a1,s7,s1
0xffffffc0802028aa:  8556              mv                      a0,s5
0xffffffc0802028ac:  00003097          auipc                   ra,3                    # 0xffffffc0802058ac
0xffffffc0802028b0:  a86080e7          jalr                    ra,ra,-1402

----------------
IN: 
Priv: 1; Virt: 0
0xffffffc0802028b4:  020ab583          ld                      a1,32(s5)
0xffffffc0802028b8:  01bab023          sd                      s11,0(s5)
0xffffffc0802028bc:  013ab423          sd                      s3,8(s5)
0xffffffc0802028c0:  8556              mv                      a0,s5
0xffffffc0802028c2:  00002097          auipc                   ra,2                    # 0xffffffc0802048c2
0xffffffc0802028c6:  93e080e7          jalr                    ra,ra,-1730

----------------
IN: 
Priv: 1; Virt: 0
0xffffffc080204378:  4491              addi                    s1,zero,4
0xffffffc08020437a:  854e              mv                      a0,s3
0xffffffc08020437c:  85ca              mv                      a1,s2
0xffffffc08020437e:  00000097          auipc                   ra,0                    # 0xffffffc08020437e
0xffffffc080204382:  e82080e7          jalr                    ra,ra,-382

----------------
IN: 
Priv: 1; Virt: 0
0xffffffc080204386:  0089b503          ld                      a0,8(s3)
0xffffffc08020438a:  0a956f63          bgtu                    s1,a0,190               # 0xffffffc080204448

----------------
IN: 
Priv: 1; Virt: 0
0xffffffc08020438e:  0009b583          ld                      a1,0(s3)
0xffffffc080204392:  0015c603          lbu                     a2,1(a1)
0xffffffc080204396:  0005c683          lbu                     a3,0(a1)
0xffffffc08020439a:  0025c703          lbu                     a4,2(a1)
0xffffffc08020439e:  00358783          lb                      a5,3(a1)
0xffffffc0802043a2:  0622              slli                    a2,a2,8
0xffffffc0802043a4:  8e55              or                      a2,a2,a3
0xffffffc0802043a6:  0742              slli                    a4,a4,16
0xffffffc0802043a8:  07e2              slli                    a5,a5,24
0xffffffc0802043aa:  8f5d              or                      a4,a4,a5
0xffffffc0802043ac:  8e59              or                      a2,a2,a4
0xffffffc0802043ae:  fd4606e3          beq                     a2,s4,-52               # 0xffffffc08020437a

----------------
IN: 
Priv: 1; Virt: 0
0xffffffc0802028ca:  4481              mv                      s1,zero
0xffffffc0802028cc:  86d2              mv                      a3,s4
0xffffffc0802028ce:  865a              mv                      a2,s6
0xffffffc0802028d0:  a809              j                       18                      # 0xffffffc0802028e2

----------------
IN: 
Priv: 1; Virt: 0
0xffffffc0802028e2:  03967763          bleu                    s9,a2,46                # 0xffffffc080202910

----------------
IN: 
Priv: 1; Virt: 0
0xffffffc0802028e6:  4581              mv                      a1,zero
0xffffffc0802028e8:  009b1663          bne                     s6,s1,12                # 0xffffffc0802028f4

----------------
IN: 
Priv: 1; Virt: 0
0xffffffc0802028f4:  00b68533          add                     a0,a3,a1
0xffffffc0802028f8:  00054503          lbu                     a0,0(a0)
0xffffffc0802028fc:  03a50463          beq                     a0,s10,40               # 0xffffffc080202924

----------------
IN: 
Priv: 1; Virt: 0
0xffffffc080202900:  0585              addi                    a1,a1,1
0xffffffc080202902:  feb619e3          bne                     a2,a1,-14               # 0xffffffc0802028f4

----------------
IN: 
Priv: 1; Virt: 0
0xffffffc080202924:  4505              addi                    a0,zero,1
0xffffffc080202926:  01851c63          bne                     a0,s8,24                # 0xffffffc08020293e

----------------
IN: 
Priv: 1; Virt: 0
0xffffffc08020292a:  95a6              add                     a1,a1,s1
0xffffffc08020292c:  fb65f3e3          bleu                    s6,a1,-90               # 0xffffffc0802028d2

----------------
IN: 
Priv: 1; Virt: 0
0xffffffc080202930:  00ba0533          add                     a0,s4,a1
0xffffffc080202934:  00054503          lbu                     a0,0(a0)
0xffffffc080202938:  f9a51de3          bne                     a0,s10,-102             # 0xffffffc0802028d2

----------------
IN: 
Priv: 1; Virt: 0
0xffffffc08020293c:  8b2e              mv                      s6,a1
0xffffffc08020293e:  450d              addi                    a0,zero,3
0xffffffc080202940:  02ab1363          bne                     s6,a0,38                # 0xffffffc080202966

----------------
IN: 
Priv: 1; Virt: 0
0xffffffc080202944:  460d              addi                    a2,zero,3
0xffffffc080202946:  8552              mv                      a0,s4
0xffffffc080202948:  f8043583          ld                      a1,-128(s0)
0xffffffc08020294c:  00005097          auipc                   ra,5                    # 0xffffffc08020794c
0xffffffc080202950:  7f0080e7          jalr                    ra,ra,2032

----------------
IN: 
Priv: 1; Virt: 0
0xffffffc080202954:  2501              sext.w                  a0,a0
0xffffffc080202956:  00153513          seqz                    a0,a0
0xffffffc08020295a:  008ab583          ld                      a1,8(s5)
0xffffffc08020295e:  992a              add                     s2,s2,a0
0xffffffc080202960:  ea0590e3          bnez                    a1,-352                 # 0xffffffc080202800

----------------
IN: 
Priv: 1; Virt: 0
0xffffffc080202800:  048ac503          lbu                     a0,72(s5)
0xffffffc080202804:  16051963          bnez                    a0,370                  # 0xffffffc080202976

----------------
IN: 
Priv: 1; Virt: 0
0xffffffc080202906:  4501              mv                      a0,zero
0xffffffc080202908:  85b2              mv                      a1,a2
0xffffffc08020290a:  03800063          beq                     zero,s8,32              # 0xffffffc08020292a

----------------
IN: 
Priv: 1; Virt: 0
0xffffffc08020290e:  a805              j                       48                      # 0xffffffc08020293e

----------------
IN: 
Priv: 1; Virt: 0
0xffffffc08020293e:  450d              addi                    a0,zero,3
0xffffffc080202940:  02ab1363          bne                     s6,a0,38                # 0xffffffc080202966

----------------
IN: 
Priv: 1; Virt: 0
0xffffffc080202966:  4501              mv                      a0,zero
0xffffffc080202968:  008ab583          ld                      a1,8(s5)
0xffffffc08020296c:  894a              mv                      s2,s2
0xffffffc08020296e:  e80599e3          bnez                    a1,-366                 # 0xffffffc080202800

----------------
IN: 
Priv: 1; Virt: 0
0xffffffc080202996:  4505              addi                    a0,zero,1
0xffffffc080202998:  04aa8423          sb                      a0,72(s5)
0xffffffc08020299c:  bfe9              j                       -38                     # 0xffffffc080202976

----------------
IN: 
Priv: 1; Virt: 0
0xffffffc080202976:  854a              mv                      a0,s2
0xffffffc080202978:  70e6              ld                      ra,120(sp)
0xffffffc08020297a:  7446              ld                      s0,112(sp)
0xffffffc08020297c:  74a6              ld                      s1,104(sp)
0xffffffc08020297e:  7906              ld                      s2,96(sp)
0xffffffc080202980:  69e6              ld                      s3,88(sp)
0xffffffc080202982:  6a46              ld                      s4,80(sp)
0xffffffc080202984:  6aa6              ld                      s5,72(sp)
0xffffffc080202986:  6b06              ld                      s6,64(sp)
0xffffffc080202988:  7be2              ld                      s7,56(sp)
0xffffffc08020298a:  7c42              ld                      s8,48(sp)
0xffffffc08020298c:  7ca2              ld                      s9,40(sp)
0xffffffc08020298e:  7d02              ld                      s10,32(sp)
0xffffffc080202990:  6de2              ld                      s11,24(sp)
0xffffffc080202992:  6109              addi                    sp,sp,128
0xffffffc080202994:  8082              ret                     

----------------
IN: 
Priv: 1; Virt: 0
0xffffffc080202b64:  85aa              mv                      a1,a0
0xffffffc080202b66:  00097517          auipc                   a0,151                  # 0xffffffc080299b66
0xffffffc080202b6a:  6ca50513          addi                    a0,a0,1738
0xffffffc080202b6e:  00000097          auipc                   ra,0                    # 0xffffffc080202b6e
0xffffffc080202b72:  80c080e7          jalr                    ra,ra,-2036

----------------
IN: 
Priv: 1; Virt: 0
0xffffffc08020237a:  00850603          lb                      a2,8(a0)
0xffffffc08020237e:  0230000f          fence                   r,rw
0xffffffc080202382:  ea01              bnez                    a2,16                   # 0xffffffc080202392

----------------
IN: 
Priv: 1; Virt: 0
0xffffffc080202384:  e10c              sd                      a1,0(a0)
0xffffffc080202386:  0310000f          fence                   rw,w
0xffffffc08020238a:  4585              addi                    a1,zero,1
0xffffffc08020238c:  00b50423          sb                      a1,8(a0)
0xffffffc080202390:  8082              ret                     

----------------
IN: 
Priv: 1; Virt: 0
0xffffffc080202b76:  00097517          auipc                   a0,151                  # 0xffffffc080299b76
0xffffffc080202b7a:  70a50513          addi                    a0,a0,1802
0xffffffc080202b7e:  85a6              mv                      a1,s1
0xffffffc080202b80:  fffff097          auipc                   ra,-1                   # 0xffffffc080201b80
0xffffffc080202b84:  7fa080e7          jalr                    ra,ra,2042

----------------
IN: 
Priv: 1; Virt: 0
0xffffffc080202b88:  854e              mv                      a0,s3
0xffffffc080202b8a:  fffff097          auipc                   ra,-1                   # 0xffffffc080201b8a
0xffffffc080202b8e:  da8080e7          jalr                    ra,ra,-600

----------------
IN: 
Priv: 1; Virt: 0
0xffffffc080201932:  c111              beqz                    a0,4                    # 0xffffffc080201936

----------------
IN: 
Priv: 1; Virt: 0
0xffffffc080201936:  715d              addi                    sp,sp,-80
0xffffffc080201938:  e486              sd                      ra,72(sp)
0xffffffc08020193a:  e0a2              sd                      s0,64(sp)
0xffffffc08020193c:  fc26              sd                      s1,56(sp)
0xffffffc08020193e:  0880              addi                    s0,sp,80
0xffffffc080201940:  0000b517          auipc                   a0,11                   # 0xffffffc08020c940
0xffffffc080201944:  a6850513          addi                    a0,a0,-1432
0xffffffc080201948:  faa43c23          sd                      a0,-72(s0)
0xffffffc08020194c:  4505              addi                    a0,zero,1
0xffffffc08020194e:  fca43023          sd                      a0,-64(s0)
0xffffffc080201952:  fc043c23          sd                      zero,-40(s0)
0xffffffc080201956:  00008517          auipc                   a0,8                    # 0xffffffc080209956
0xffffffc08020195a:  eb250493          addi                    s1,a0,-334
0xffffffc08020195e:  fc943423          sd                      s1,-56(s0)
0xffffffc080201962:  fc043823          sd                      zero,-48(s0)
0xffffffc080201966:  fb840513          addi                    a0,s0,-72
0xffffffc08020196a:  fffff097          auipc                   ra,-1                   # 0xffffffc08020096a
0xffffffc08020196e:  0e6080e7          jalr                    ra,ra,230

----------------
IN: 
Priv: 1; Virt: 0
0xffffffc080200a50:  1101              addi                    sp,sp,-32
0xffffffc080200a52:  ec06              sd                      ra,24(sp)
0xffffffc080200a54:  e822              sd                      s0,16(sp)
0xffffffc080200a56:  1000              addi                    s0,sp,32
0xffffffc080200a58:  862a              mv                      a2,a0
0xffffffc080200a5a:  00009517          auipc                   a0,9                    # 0xffffffc080209a5a
0xffffffc080200a5e:  98e50593          addi                    a1,a0,-1650
0xffffffc080200a62:  fef40513          addi                    a0,s0,-17
0xffffffc080200a66:  00006097          auipc                   ra,6                    # 0xffffffc080206a66
0xffffffc080200a6a:  85c080e7          jalr                    ra,ra,-1956

----------------
IN: 
Priv: 1; Virt: 0
0xffffffc0802062c2:  7175              addi                    sp,sp,-144
0xffffffc0802062c4:  e506              sd                      ra,136(sp)
0xffffffc0802062c6:  e122              sd                      s0,128(sp)
0xffffffc0802062c8:  fca6              sd                      s1,120(sp)
0xffffffc0802062ca:  f8ca              sd                      s2,112(sp)
0xffffffc0802062cc:  f4ce              sd                      s3,104(sp)
0xffffffc0802062ce:  f0d2              sd                      s4,96(sp)
0xffffffc0802062d0:  ecd6              sd                      s5,88(sp)
0xffffffc0802062d2:  e8da              sd                      s6,80(sp)
0xffffffc0802062d4:  e4de              sd                      s7,72(sp)
0xffffffc0802062d6:  e0e2              sd                      s8,64(sp)
0xffffffc0802062d8:  89b2              mv                      s3,a2
0xffffffc0802062da:  02000613          addi                    a2,zero,32
0xffffffc0802062de:  f832              sd                      a2,48(sp)
0xffffffc0802062e0:  460d              addi                    a2,zero,3
0xffffffc0802062e2:  02c10c23          sb                      a2,56(sp)
0xffffffc0802062e6:  0209b483          ld                      s1,32(s3)
0xffffffc0802062ea:  e002              sd                      zero,0(sp)
0xffffffc0802062ec:  e802              sd                      zero,16(sp)
0xffffffc0802062ee:  f02a              sd                      a0,32(sp)
0xffffffc0802062f0:  f42e              sd                      a1,40(sp)
0xffffffc0802062f2:  c0f9              beqz                    s1,198                  # 0xffffffc0802063b8

----------------
IN: 
Priv: 1; Virt: 0
0xffffffc0802063b8:  0189b503          ld                      a0,24(s3)
0xffffffc0802063bc:  c539              beqz                    a0,78                   # 0xffffffc08020640a

----------------
IN: 
Priv: 1; Virt: 0
0xffffffc08020640a:  4901              mv                      s2,zero
0xffffffc08020640c:  0089b503          ld                      a0,8(s3)
0xffffffc080206410:  02a07163          bleu                    a0,zero,34              # 0xffffffc080206432

----------------
IN: 
Priv: 1; Virt: 0
0xffffffc080206414:  0009b503          ld                      a0,0(s3)
0xffffffc080206418:  0912              slli                    s2,s2,4
0xffffffc08020641a:  992a              add                     s2,s2,a0
0xffffffc08020641c:  76a2              ld                      a3,40(sp)
0xffffffc08020641e:  7502              ld                      a0,32(sp)
0xffffffc080206420:  00093583          ld                      a1,0(s2)
0xffffffc080206424:  00893603          ld                      a2,8(s2)
0xffffffc080206428:  6e94              ld                      a3,24(a3)
0xffffffc08020642a:  9682              jalr                    ra,a3,0

----------------
IN: 
Priv: 1; Virt: 0
0xffffffc080200a2c:  c205              beqz                    a2,32                   # 0xffffffc080200a4c

----------------
IN: 
Priv: 1; Virt: 0
0xffffffc080200a2e:  1141              addi                    sp,sp,-16
0xffffffc080200a30:  e406              sd                      ra,8(sp)
0xffffffc080200a32:  e022              sd                      s0,0(sp)
0xffffffc080200a34:  0800              addi                    s0,sp,16
0xffffffc080200a36:  4885              addi                    a7,zero,1
0xffffffc080200a38:  0005c503          lbu                     a0,0(a1)
0xffffffc080200a3c:  00000073          ecall                   

riscv_cpu_do_interrupt: hart:0, async:0, cause:0000000000000009, epc:0xffffffc080200a3c, tval:0x0000000000000000, desc=supervisor_ecall
----------------
IN: 
Priv: 3; Virt: 0
0x80001690:  6ec0106f          j                       5868                    # 0x80002d7c

----------------
IN: 
Priv: 3; Virt: 0
0x80002d7c:  34011173          csrrw                   sp,mscratch,sp

----------------
IN: 
Priv: 3; Virt: 0
0x80002d80:  e82a              sd                      a0,16(sp)
0x80002d82:  6502              ld                      a0,0(sp)
0x80002d84:  00153023          sd                      ra,0(a0)
0x80002d88:  00553423          sd                      t0,8(a0)
0x80002d8c:  00653823          sd                      t1,16(a0)
0x80002d90:  00753c23          sd                      t2,24(a0)
0x80002d94:  03c53023          sd                      t3,32(a0)
0x80002d98:  03d53423          sd                      t4,40(a0)
0x80002d9c:  03e53823          sd                      t5,48(a0)
0x80002da0:  03f53c23          sd                      t6,56(a0)
0x80002da4:  850a              mv                      a0,sp
0x80002da6:  60a2              ld                      ra,8(sp)
0x80002da8:  9082              jalr                    ra,ra,0

----------------
IN: 
Priv: 3; Virt: 0
0x8000061e:  df010113          addi                    sp,sp,-528
0x80000622:  20113423          sd                      ra,520(sp)
0x80000626:  20813023          sd                      s0,512(sp)
0x8000062a:  ffa6              sd                      s1,504(sp)
0x8000062c:  fbca              sd                      s2,496(sp)
0x8000062e:  f7ce              sd                      s3,488(sp)
0x80000630:  f3d2              sd                      s4,480(sp)
0x80000632:  efd6              sd                      s5,472(sp)
0x80000634:  ebda              sd                      s6,464(sp)
0x80000636:  e7de              sd                      s7,456(sp)
0x80000638:  e3e2              sd                      s8,448(sp)
0x8000063a:  ff66              sd                      s9,440(sp)
0x8000063c:  fb6a              sd                      s10,432(sp)
0x8000063e:  f76e              sd                      s11,424(sp)
0x80000640:  8d46              mv                      s10,a7
0x80000642:  8cc2              mv                      s9,a6
0x80000644:  f03e              sd                      a5,32(sp)
0x80000646:  ec3a              sd                      a4,24(sp)
0x80000648:  e836              sd                      a3,16(sp)
0x8000064a:  8c32              mv                      s8,a2
0x8000064c:  e42e              sd                      a1,8(sp)
0x8000064e:  f82a              sd                      a0,48(sp)
0x80000650:  4409              addi                    s0,zero,2
0x80000652:  4a05              addi                    s4,zero,1
0x80000654:  4aa1              addi                    s5,zero,8
0x80000656:  00028517          auipc                   a0,40                   # 0x80028656
0x8000065a:  97250513          addi                    a0,a0,-1678
0x8000065e:  f42a              sd                      a0,40(sp)
0x80000660:  6505              lui                     a0,1
0x80000662:  fff50b1b          addiw                   s6,a0,-1
0x80000666:  4925              addi                    s2,zero,9
0x80000668:  00485537          lui                     a0,1157
0x8000066c:  34d50b9b          addiw                   s7,a0,845
0x80000670:  59fd              addi                    s3,zero,-1
0x80000672:  00002097          auipc                   ra,2                    # 0x80002672
0x80000676:  d64080e7          jalr                    ra,ra,-668

----------------
IN: 
Priv: 3; Virt: 0
0x800023d6:  f1402573          csrrs                   a0,mhartid,zero

----------------
IN: 
Priv: 3; Virt: 0
0x800023da:  053a              slli                    a0,a0,14
0x800023dc:  00006597          auipc                   a1,6                    # 0x800083dc
0x800023e0:  aa458593          addi                    a1,a1,-1372
0x800023e4:  952e              add                     a0,a0,a1
0x800023e6:  10050513          addi                    a0,a0,256
0x800023ea:  8082              ret                     

----------------
IN: 
Priv: 3; Virt: 0
0x8000067a:  140535af          lr.d.aq                 a1,(a0)
0x8000067e:  00859563          bne                     a1,s0,10                # 0x80000688

----------------
IN: 
Priv: 3; Virt: 0
0x80000688:  ffe58613          addi                    a2,a1,-2
0x8000068c:  00163613          seqz                    a2,a2
0x80000690:  02858363          beq                     a1,s0,38                # 0x800006b6

----------------
IN: 
Priv: 3; Virt: 0
0x80000694:  03359863          bne                     a1,s3,48                # 0x800006c4

----------------
IN: 
Priv: 3; Virt: 0
0x800006c4:  00167513          andi                    a0,a2,1
0x800006c8:  14051763          bnez                    a0,334                  # 0x80000816

----------------
IN: 
Priv: 3; Virt: 0
0x800006cc:  03459163          bne                     a1,s4,34                # 0x800006ee

----------------
IN: 
Priv: 3; Virt: 0
0x800006ee:  34202573          csrrs                   a0,mcause,zero

----------------
IN: 
Priv: 3; Virt: 0
0x800006f2:  6c054363          bltz                    a0,1734                 # 0x80000db8

----------------
IN: 
Priv: 3; Virt: 0
0x800006f6:  67251063          bne                     a0,s2,1632              # 0x80000d56

----------------
IN: 
Priv: 3; Virt: 0
0x800006fa:  7542              ld                      a0,48(sp)
0x800006fc:  01053d83          ld                      s11,16(a0)
0x80000700:  017d1d63          bne                     s10,s7,26               # 0x8000071a

----------------
IN: 
Priv: 3; Virt: 0
0x8000071a:  00735537          lui                     a0,1845
0x8000071e:  0485059b          addiw                   a1,a0,72
0x80000722:  0ba5c163          bgt                     s10,a1,162              # 0x800007c4

----------------
IN: 
Priv: 3; Virt: 0
0x80000726:  4505              addi                    a0,zero,1
0x80000728:  14ad0463          beq                     s10,a0,328              # 0x80000870

----------------
IN: 
Priv: 3; Virt: 0
0x80000870:  0ffdf593          andi                    a1,s11,255
0x80000874:  c1ae              sw                      a1,192(sp)
0x80000876:  018c              addi                    a1,sp,192
0x80000878:  f8ae              sd                      a1,112(sp)
0x8000087a:  00005597          auipc                   a1,5                    # 0x8000587a
0x8000087e:  93458593          addi                    a1,a1,-1740
0x80000882:  fcae              sd                      a1,120(sp)
0x80000884:  192c              addi                    a1,sp,184
0x80000886:  e0ae              sd                      a1,64(sp)
0x80000888:  e582              sd                      zero,200(sp)
0x8000088a:  00006597          auipc                   a1,6                    # 0x8000688a
0x8000088e:  ace58593          addi                    a1,a1,-1330
0x80000892:  edae              sd                      a1,216(sp)
0x80000894:  f1aa              sd                      a0,224(sp)
0x80000896:  188c              addi                    a1,sp,112
0x80000898:  f5ae              sd                      a1,232(sp)
0x8000089a:  f9aa              sd                      a0,240(sp)
0x8000089c:  00006597          auipc                   a1,6                    # 0x8000689c
0x800008a0:  ba458593          addi                    a1,a1,-1116
0x800008a4:  0088              addi                    a0,sp,64
0x800008a6:  01b0              addi                    a2,sp,200
0x800008a8:  00004097          auipc                   ra,4                    # 0x800048a8
0x800008ac:  0f8080e7          jalr                    ra,ra,248

----------------
IN: 
Priv: 3; Virt: 0
0x800049a0:  7119              addi                    sp,sp,-128
0x800049a2:  fc86              sd                      ra,120(sp)
0x800049a4:  f8a2              sd                      s0,112(sp)
0x800049a6:  f4a6              sd                      s1,104(sp)
0x800049a8:  f0ca              sd                      s2,96(sp)
0x800049aa:  ecce              sd                      s3,88(sp)
0x800049ac:  e8d2              sd                      s4,80(sp)
0x800049ae:  e4d6              sd                      s5,72(sp)
0x800049b0:  e0da              sd                      s6,64(sp)
0x800049b2:  89b2              mv                      s3,a2
0x800049b4:  4605              addi                    a2,zero,1
0x800049b6:  1616              slli                    a2,a2,37
0x800049b8:  f832              sd                      a2,48(sp)
0x800049ba:  460d              addi                    a2,zero,3
0x800049bc:  02c10c23          sb                      a2,56(sp)
0x800049c0:  0009b603          ld                      a2,0(s3)
0x800049c4:  e802              sd                      zero,16(sp)
0x800049c6:  f002              sd                      zero,32(sp)
0x800049c8:  e02a              sd                      a0,0(sp)
0x800049ca:  e42e              sd                      a1,8(sp)
0x800049cc:  c669              beqz                    a2,202                  # 0x80004a96

----------------
IN: 
Priv: 3; Virt: 0
0x80004a96:  0289b503          ld                      a0,40(s3)
0x80004a9a:  c931              beqz                    a0,84                   # 0x80004aee

----------------
IN: 
Priv: 3; Virt: 0
0x80004a9c:  0209b583          ld                      a1,32(s3)
0x80004aa0:  0109b603          ld                      a2,16(s3)
0x80004aa4:  fff50693          addi                    a3,a0,-1
0x80004aa8:  0692              slli                    a3,a3,4
0x80004aaa:  8291              srli                    a3,a3,4
0x80004aac:  00168913          addi                    s2,a3,1
0x80004ab0:  00860413          addi                    s0,a2,8
0x80004ab4:  00451a13          slli                    s4,a0,4
0x80004ab8:  00858493          addi                    s1,a1,8
0x80004abc:  6010              ld                      a2,0(s0)
0x80004abe:  ca01              beqz                    a2,16                   # 0x80004ace

----------------
IN: 
Priv: 3; Virt: 0
0x80004ace:  6090              ld                      a2,0(s1)
0x80004ad0:  ff84b503          ld                      a0,-8(s1)
0x80004ad4:  858a              mv                      a1,sp
0x80004ad6:  9602              jalr                    ra,a2,0

----------------
IN: 
Priv: 3; Virt: 0
0x800051ae:  1141              addi                    sp,sp,-16
0x800051b0:  e406              sd                      ra,8(sp)
0x800051b2:  86ae              mv                      a3,a1
0x800051b4:  698c              ld                      a1,16(a1)
0x800051b6:  7290              ld                      a2,32(a3)
0x800051b8:  15fd              addi                    a1,a1,-1
0x800051ba:  00b03733          snez                    a4,a1
0x800051be:  167d              addi                    a2,a2,-1
0x800051c0:  410c              lw                      a1,0(a0)
0x800051c2:  00c03533          snez                    a0,a2
0x800051c6:  8d79              and                     a0,a0,a4
0x800051c8:  c519              beqz                    a0,14                   # 0x800051d6

----------------
IN: 
Priv: 3; Virt: 0
0x800051ca:  6690              ld                      a2,8(a3)
0x800051cc:  6288              ld                      a0,0(a3)
0x800051ce:  721c              ld                      a5,32(a2)
0x800051d0:  60a2              ld                      ra,8(sp)
0x800051d2:  0141              addi                    sp,sp,16
0x800051d4:  8782              jr                      a5

----------------
IN: 
Priv: 3; Virt: 0
0x800014dc:  1101              addi                    sp,sp,-32
0x800014de:  ec06              sd                      ra,24(sp)
0x800014e0:  e822              sd                      s0,16(sp)
0x800014e2:  e426              sd                      s1,8(sp)
0x800014e4:  0005851b          sext.w                  a0,a1
0x800014e8:  08000613          addi                    a2,zero,128
0x800014ec:  c202              sw                      zero,4(sp)
0x800014ee:  00c57663          bleu                    a2,a0,12                # 0x800014fa

----------------
IN: 
Priv: 3; Virt: 0
0x800014f2:  00b10223          sb                      a1,4(sp)
0x800014f6:  4405              addi                    s0,zero,1
0x800014f8:  a851              j                       148                     # 0x8000158c

----------------
IN: 
Priv: 3; Virt: 0
0x8000158c:  00027497          auipc                   s1,39                   # 0x8002858c
0x80001590:  a2448493          addi                    s1,s1,-1500
0x80001594:  01048503          lb                      a0,16(s1)
0x80001598:  0230000f          fence                   r,rw
0x8000159c:  00002097          auipc                   ra,2                    # 0x8000359c
0x800015a0:  7f8080e7          jalr                    ra,ra,2040

----------------
IN: 
Priv: 3; Virt: 0
0x80003d94:  8082              ret                     

----------------
IN: 
Priv: 3; Virt: 0
0x800015a4:  0ff57513          andi                    a0,a0,255
0x800015a8:  4589              addi                    a1,zero,2
0x800015aa:  00b51e63          bne                     a0,a1,28                # 0x800015c6

----------------
IN: 
Priv: 3; Virt: 0
0x800015ae:  648c              ld                      a1,8(s1)
0x800015b0:  6088              ld                      a0,0(s1)
0x800015b2:  7194              ld                      a3,32(a1)
0x800015b4:  004c              addi                    a1,sp,4
0x800015b6:  8622              mv                      a2,s0
0x800015b8:  9682              jalr                    ra,a3,0

----------------
IN: 
Priv: 3; Virt: 0
0x8000106a:  7179              addi                    sp,sp,-48
0x8000106c:  f406              sd                      ra,40(sp)
0x8000106e:  f022              sd                      s0,32(sp)
0x80001070:  ec26              sd                      s1,24(sp)
0x80001072:  e84a              sd                      s2,16(sp)
0x80001074:  e44e              sd                      s3,8(sp)
0x80001076:  00027497          auipc                   s1,39                   # 0x80028076
0x8000107a:  ef248493          addi                    s1,s1,-270
0x8000107e:  ffc4f513          andi                    a0,s1,-4
0x80001082:  0ff00693          addi                    a3,zero,255
0x80001086:  4705              addi                    a4,zero,1
0x80001088:  140527af          lr.w.aq                 a5,(a0)
0x8000108c:  00d7f433          and                     s0,a5,a3
0x80001090:  e801              bnez                    s0,16                   # 0x800010a0

----------------
IN: 
Priv: 3; Virt: 0
0x80001092:  00e7c433          xor                     s0,a5,a4
0x80001096:  8c75              and                     s0,s0,a3
0x80001098:  8c3d              xor                     s0,s0,a5
0x8000109a:  1885242f          sc.w                    s0,s0,(a0)
0x8000109e:  f46d              bnez                    s0,-22                  # 0x80001088

----------------
IN: 
Priv: 3; Virt: 0
0x800010a0:  0ff7f793          andi                    a5,a5,255
0x800010a4:  8432              mv                      s0,a2
0x800010a6:  e781              bnez                    a5,8                    # 0x800010ae

----------------
IN: 
Priv: 3; Virt: 0
0x800010a8:  a02d              j                       42                      # 0x800010d2

----------------
IN: 
Priv: 3; Virt: 0
0x800010d2:  c005              beqz                    s0,32                   # 0x800010f2

----------------
IN: 
Priv: 3; Virt: 0
0x800010d4:  00848913          addi                    s2,s1,8
0x800010d8:  00058603          lb                      a2,0(a1)
0x800010dc:  00158993          addi                    s3,a1,1
0x800010e0:  854a              mv                      a0,s2
0x800010e2:  85b2              mv                      a1,a2
0x800010e4:  00002097          auipc                   ra,2                    # 0x800030e4
0x800010e8:  bc8080e7          jalr                    ra,ra,-1080

----------------
IN: 
Priv: 3; Virt: 0
0x80002cac:  6110              ld                      a2,0(a0)
0x80002cae:  0ff5f693          andi                    a3,a1,255
0x80002cb2:  07f00713          addi                    a4,zero,127
0x80002cb6:  02e68863          beq                     a3,a4,48                # 0x80002ce6

----------------
IN: 
Priv: 3; Virt: 0
0x80002cba:  4721              addi                    a4,zero,8
0x80002cbc:  02e68563          beq                     a3,a4,42                # 0x80002ce6

----------------
IN: 
Priv: 3; Virt: 0
0x80002cc0:  7514              ld                      a3,40(a0)
0x80002cc2:  0006c683          lbu                     a3,0(a3)
0x80002cc6:  0206f693          andi                    a3,a3,32
0x80002cca:  ea89              bnez                    a3,18                   # 0x80002cdc

----------------
IN: 
Priv: 3; Virt: 0
0x80002cc2:  0006c683          lbu                     a3,0(a3)

----------------
IN: 
Priv: 3; Virt: 0
0x80002cc6:  0206f693          andi                    a3,a3,32
0x80002cca:  ea89              bnez                    a3,18                   # 0x80002cdc

----------------
IN: 
Priv: 3; Virt: 0
0x80002cdc:  00b60023          sb                      a1,0(a2)
0x80002ce0:  8082              ret                     

----------------
IN: 
Priv: 3; Virt: 0
0x80002cdc:  00b60023          sb                      a1,0(a2)

----------------
IN: 
Priv: 3; Virt: 0
0x80002ce0:  8082              ret                     

----------------
IN: 
Priv: 3; Virt: 0
0x800010ec:  147d              addi                    s0,s0,-1
0x800010ee:  85ce              mv                      a1,s3
0x800010f0:  f465              bnez                    s0,-24                  # 0x800010d8

----------------
IN: 
Priv: 3; Virt: 0
0x800010f2:  0310000f          fence                   rw,w
0x800010f6:  00048023          sb                      zero,0(s1)
0x800010fa:  70a2              ld                      ra,40(sp)
0x800010fc:  7402              ld                      s0,32(sp)
0x800010fe:  64e2              ld                      s1,24(sp)
0x80001100:  6942              ld                      s2,16(sp)
0x80001102:  69a2              ld                      s3,8(sp)
0x80001104:  6145              addi                    sp,sp,48
0x80001106:  8082              ret                     

----------------
IN: 
Priv: 3; Virt: 0
0x800015ba:  4501              mv                      a0,zero
0x800015bc:  60e2              ld                      ra,24(sp)
0x800015be:  6442              ld                      s0,16(sp)
0x800015c0:  64a2              ld                      s1,8(sp)
0x800015c2:  6105              addi                    sp,sp,32
0x800015c4:  8082              ret                     

----------------
IN: 
Priv: 3; Virt: 0
0x80004ad8:  ed0d              bnez                    a0,58                   # 0x80004b12

----------------
IN: 
Priv: 3; Virt: 0
0x80004ada:  0441              addi                    s0,s0,16
0x80004adc:  1a41              addi                    s4,s4,-16
0x80004ade:  04c1              addi                    s1,s1,16
0x80004ae0:  fc0a1ee3          bnez                    s4,-36                  # 0x80004abc

----------------
IN: 
Priv: 3; Virt: 0
0x80004ae4:  0189b503          ld                      a0,24(s3)
0x80004ae8:  00a96863          bgtu                    a0,s2,16                # 0x80004af8

----------------
IN: 
Priv: 3; Virt: 0
0x80004aec:  a02d              j                       42                      # 0x80004b16

----------------
IN: 
Priv: 3; Virt: 0
0x80004b16:  4501              mv                      a0,zero
0x80004b18:  70e6              ld                      ra,120(sp)
0x80004b1a:  7446              ld                      s0,112(sp)
0x80004b1c:  74a6              ld                      s1,104(sp)
0x80004b1e:  7906              ld                      s2,96(sp)
0x80004b20:  69e6              ld                      s3,88(sp)
0x80004b22:  6a46              ld                      s4,80(sp)
0x80004b24:  6aa6              ld                      s5,72(sp)
0x80004b26:  6b06              ld                      s6,64(sp)
0x80004b28:  6109              addi                    sp,sp,128
0x80004b2a:  8082              ret                     

----------------
IN: 
Priv: 3; Virt: 0
0x800008b0:  64051c63          bnez                    a0,1624                 # 0x80000f08

----------------
IN: 
Priv: 3; Virt: 0
0x800008b4:  65a2              ld                      a1,8(sp)
0x800008b6:  a4e5              j                       744                     # 0x80000b9e

----------------
IN: 
Priv: 3; Virt: 0
0x80000b9e:  7642              ld                      a2,48(sp)
0x80000ba0:  6210              ld                      a2,0(a2)
0x80000ba2:  e228              sd                      a0,64(a2)
0x80000ba4:  e62c              sd                      a1,72(a2)
0x80000ba6:  05863823          sd                      s8,80(a2)
0x80000baa:  6542              ld                      a0,16(sp)
0x80000bac:  ee28              sd                      a0,88(a2)
0x80000bae:  6562              ld                      a0,24(sp)
0x80000bb0:  f228              sd                      a0,96(a2)
0x80000bb2:  7502              ld                      a0,32(sp)
0x80000bb4:  f628              sd                      a0,104(a2)
0x80000bb6:  07963823          sd                      s9,112(a2)
0x80000bba:  07a63c23          sd                      s10,120(a2)
0x80000bbe:  34102573          csrrs                   a0,mepc,zero

----------------
IN: 
Priv: 3; Virt: 0
0x80000bc2:  0511              addi                    a0,a0,4
0x80000bc4:  34151073          csrrw                   zero,mepc,a0

----------------
IN: 
Priv: 3; Virt: 0
0x80000bc8:  4509              addi                    a0,zero,2
0x80000bca:  20813083          ld                      ra,520(sp)
0x80000bce:  20013403          ld                      s0,512(sp)
0x80000bd2:  74fe              ld                      s1,504(sp)
0x80000bd4:  795e              ld                      s2,496(sp)
0x80000bd6:  79be              ld                      s3,488(sp)
0x80000bd8:  7a1e              ld                      s4,480(sp)
0x80000bda:  6afe              ld                      s5,472(sp)
0x80000bdc:  6b5e              ld                      s6,464(sp)
0x80000bde:  6bbe              ld                      s7,456(sp)
0x80000be0:  6c1e              ld                      s8,448(sp)
0x80000be2:  7cfa              ld                      s9,440(sp)
0x80000be4:  7d5a              ld                      s10,432(sp)
0x80000be6:  7dba              ld                      s11,424(sp)
0x80000be8:  21010113          addi                    sp,sp,528
0x80000bec:  8082              ret                     

----------------
IN: 
Priv: 3; Virt: 0
0x80002daa:  6582              ld                      a1,0(sp)
0x80002dac:  cd59              beqz                    a0,158                  # 0x80002e4a

----------------
IN: 
Priv: 3; Virt: 0
0x80002dae:  157d              addi                    a0,a0,-1
0x80002db0:  c549              beqz                    a0,138                  # 0x80002e3a

----------------
IN: 
Priv: 3; Virt: 0
0x80002db2:  157d              addi                    a0,a0,-1
0x80002db4:  c13d              beqz                    a0,102                  # 0x80002e1a

----------------
IN: 
Priv: 3; Virt: 0
0x80002e1a:  0005b083          ld                      ra,0(a1)
0x80002e1e:  0085b283          ld                      t0,8(a1)
0x80002e22:  0105b303          ld                      t1,16(a1)
0x80002e26:  0185b383          ld                      t2,24(a1)
0x80002e2a:  0205be03          ld                      t3,32(a1)
0x80002e2e:  0285be83          ld                      t4,40(a1)
0x80002e32:  0305bf03          ld                      t5,48(a1)
0x80002e36:  0385bf83          ld                      t6,56(a1)
0x80002e3a:  69b0              ld                      a2,80(a1)
0x80002e3c:  6db4              ld                      a3,88(a1)
0x80002e3e:  71b8              ld                      a4,96(a1)
0x80002e40:  75bc              ld                      a5,104(a1)
0x80002e42:  0705b803          ld                      a6,112(a1)
0x80002e46:  0785b883          ld                      a7,120(a1)
0x80002e4a:  61a8              ld                      a0,64(a1)
0x80002e4c:  65ac              ld                      a1,72(a1)
0x80002e4e:  34011173          csrrw                   sp,mscratch,sp

----------------
IN: 
Priv: 3; Virt: 0
0x80002e52:  30200073          mret                    

----------------
IN: 
Priv: 1; Virt: 0
0xffffffc080200a40:  0585              addi                    a1,a1,1
0xffffffc080200a42:  167d              addi                    a2,a2,-1
0xffffffc080200a44:  fa75              bnez                    a2,-12                  # 0xffffffc080200a38

----------------
IN: 
Priv: 1; Virt: 0
0xffffffc080200a38:  0005c503          lbu                     a0,0(a1)
0xffffffc080200a3c:  00000073          ecall                   

riscv_cpu_do_interrupt: hart:0, async:0, cause:0000000000000009, epc:0xffffffc080200a3c, tval:0x0000000000000000, desc=supervisor_ecall
riscv_cpu_do_interrupt: hart:0, async:0, cause:0000000000000009, epc:0xffffffc080200a3c, tval:0x0000000000000000, desc=supervisor_ecall
riscv_cpu_do_interrupt: hart:0, async:0, cause:0000000000000009, epc:0xffffffc080200a3c, tval:0x0000000000000000, desc=supervisor_ecall
riscv_cpu_do_interrupt: hart:0, async:0, cause:0000000000000009, epc:0xffffffc080200a3c, tval:0x0000000000000000, desc=supervisor_ecall
riscv_cpu_do_interrupt: hart:0, async:0, cause:0000000000000009, epc:0xffffffc080200a3c, tval:0x0000000000000000, desc=supervisor_ecall
riscv_cpu_do_interrupt: hart:0, async:0, cause:0000000000000009, epc:0xffffffc080200a3c, tval:0x0000000000000000, desc=supervisor_ecall
riscv_cpu_do_interrupt: hart:0, async:0, cause:0000000000000009, epc:0xffffffc080200a3c, tval:0x0000000000000000, desc=supervisor_ecall
riscv_cpu_do_interrupt: hart:0, async:0, cause:0000000000000009, epc:0xffffffc080200a3c, tval:0x0000000000000000, desc=supervisor_ecall
riscv_cpu_do_interrupt: hart:0, async:0, cause:0000000000000009, epc:0xffffffc080200a3c, tval:0x0000000000000000, desc=supervisor_ecall
riscv_cpu_do_interrupt: hart:0, async:0, cause:0000000000000009, epc:0xffffffc080200a3c, tval:0x0000000000000000, desc=supervisor_ecall
riscv_cpu_do_interrupt: hart:0, async:0, cause:0000000000000009, epc:0xffffffc080200a3c, tval:0x0000000000000000, desc=supervisor_ecall
riscv_cpu_do_interrupt: hart:0, async:0, cause:0000000000000009, epc:0xffffffc080200a3c, tval:0x0000000000000000, desc=supervisor_ecall
riscv_cpu_do_interrupt: hart:0, async:0, cause:0000000000000009, epc:0xffffffc080200a3c, tval:0x0000000000000000, desc=supervisor_ecall
riscv_cpu_do_interrupt: hart:0, async:0, cause:0000000000000009, epc:0xffffffc080200a3c, tval:0x0000000000000000, desc=supervisor_ecall
riscv_cpu_do_interrupt: hart:0, async:0, cause:0000000000000009, epc:0xffffffc080200a3c, tval:0x0000000000000000, desc=supervisor_ecall
riscv_cpu_do_interrupt: hart:0, async:0, cause:0000000000000009, epc:0xffffffc080200a3c, tval:0x0000000000000000, desc=supervisor_ecall
riscv_cpu_do_interrupt: hart:0, async:0, cause:0000000000000009, epc:0xffffffc080200a3c, tval:0x0000000000000000, desc=supervisor_ecall
riscv_cpu_do_interrupt: hart:0, async:0, cause:0000000000000009, epc:0xffffffc080200a3c, tval:0x0000000000000000, desc=supervisor_ecall
riscv_cpu_do_interrupt: hart:0, async:0, cause:0000000000000009, epc:0xffffffc080200a3c, tval:0x0000000000000000, desc=supervisor_ecall
riscv_cpu_do_interrupt: hart:0, async:0, cause:0000000000000009, epc:0xffffffc080200a3c, tval:0x0000000000000000, desc=supervisor_ecall
riscv_cpu_do_interrupt: hart:0, async:0, cause:0000000000000009, epc:0xffffffc080200a3c, tval:0x0000000000000000, desc=supervisor_ecall
riscv_cpu_do_interrupt: hart:0, async:0, cause:0000000000000009, epc:0xffffffc080200a3c, tval:0x0000000000000000, desc=supervisor_ecall
----------------
IN: 
Priv: 1; Virt: 0
0xffffffc080200a46:  60a2              ld                      ra,8(sp)
0xffffffc080200a48:  6402              ld                      s0,0(sp)
0xffffffc080200a4a:  0141              addi                    sp,sp,16
0xffffffc080200a4c:  4501              mv                      a0,zero
0xffffffc080200a4e:  8082              ret                     

----------------
IN: 
Priv: 1; Virt: 0
0xffffffc08020642c:  c119              beqz                    a0,6                    # 0xffffffc080206432

----------------
IN: 
Priv: 1; Virt: 0
0xffffffc080206432:  4501              mv                      a0,zero
0xffffffc080206434:  60aa              ld                      ra,136(sp)
0xffffffc080206436:  640a              ld                      s0,128(sp)
0xffffffc080206438:  74e6              ld                      s1,120(sp)
0xffffffc08020643a:  7946              ld                      s2,112(sp)
0xffffffc08020643c:  79a6              ld                      s3,104(sp)
0xffffffc08020643e:  7a06              ld                      s4,96(sp)
0xffffffc080206440:  6ae6              ld                      s5,88(sp)
0xffffffc080206442:  6b46              ld                      s6,80(sp)
0xffffffc080206444:  6ba6              ld                      s7,72(sp)
0xffffffc080206446:  6c06              ld                      s8,64(sp)
0xffffffc080206448:  6149              addi                    sp,sp,144
0xffffffc08020644a:  8082              ret                     

----------------
IN: 
Priv: 1; Virt: 0
0xffffffc080200a6e:  e509              bnez                    a0,10                   # 0xffffffc080200a78

----------------
IN: 
Priv: 1; Virt: 0
0xffffffc080200a70:  60e2              ld                      ra,24(sp)
0xffffffc080200a72:  6442              ld                      s0,16(sp)
0xffffffc080200a74:  6105              addi                    sp,sp,32
0xffffffc080200a76:  8082              ret                     

----------------
IN: 
Priv: 1; Virt: 0
0xffffffc080201972:  0000b517          auipc                   a0,11                   # 0xffffffc08020c972
0xffffffc080201976:  a4650513          addi                    a0,a0,-1466
0xffffffc08020197a:  4595              addi                    a1,zero,5
0xffffffc08020197c:  fffff097          auipc                   ra,-1                   # 0xffffffc08020097c
0xffffffc080201980:  3e0080e7          jalr                    ra,ra,992

----------------
IN: 
Priv: 1; Virt: 0
0xffffffc080200d5c:  711d              addi                    sp,sp,-96
0xffffffc080200d5e:  ec86              sd                      ra,88(sp)
0xffffffc080200d60:  e8a2              sd                      s0,80(sp)
0xffffffc080200d62:  e4a6              sd                      s1,72(sp)
0xffffffc080200d64:  e0ca              sd                      s2,64(sp)
0xffffffc080200d66:  fc4e              sd                      s3,56(sp)
0xffffffc080200d68:  1080              addi                    s0,sp,96
0xffffffc080200d6a:  84ae              mv                      s1,a1
0xffffffc080200d6c:  89aa              mv                      s3,a0
0xffffffc080200d6e:  00008517          auipc                   a0,8                    # 0xffffffc080208d6e
0xffffffc080200d72:  4e250913          addi                    s2,a0,1250
0xffffffc080200d76:  00009517          auipc                   a0,9                    # 0xffffffc080209d76
0xffffffc080200d7a:  85a50593          addi                    a1,a0,-1958
0xffffffc080200d7e:  854a              mv                      a0,s2
0xffffffc080200d80:  00004097          auipc                   ra,4                    # 0xffffffc080204d80
0xffffffc080200d84:  696080e7          jalr                    ra,ra,1686

----------------
IN: 
Priv: 1; Virt: 0
0xffffffc080205416:  1141              addi                    sp,sp,-16
0xffffffc080205418:  e406              sd                      ra,8(sp)
0xffffffc08020541a:  e022              sd                      s0,0(sp)
0xffffffc08020541c:  0800              addi                    s0,sp,16
0xffffffc08020541e:  00095617          auipc                   a2,149                  # 0xffffffc08029a41e
0xffffffc080205422:  e7a60693          addi                    a3,a2,-390
0xffffffc080205426:  4605              addi                    a2,zero,1
0xffffffc080205428:  1606b72f          lr.d.aq.rl              a4,(a3)
0xffffffc08020542c:  e701              bnez                    a4,8                    # 0xffffffc080205434

----------------
IN: 
Priv: 1; Virt: 0
0xffffffc08020542e:  1ac6b7af          sc.d.rl                 a5,a2,(a3)
0xffffffc080205432:  fbfd              bnez                    a5,-10                  # 0xffffffc080205428

----------------
IN: 
Priv: 1; Virt: 0
0xffffffc080205434:  c71d              beqz                    a4,46                   # 0xffffffc080205462

----------------
IN: 
Priv: 1; Virt: 0
0xffffffc080205462:  4601              mv                      a2,zero
0xffffffc080205464:  00013717          auipc                   a4,19                   # 0xffffffc080218464
0xffffffc080205468:  aca73a23          sd                      a0,-1324(a4)
0xffffffc08020546c:  00013517          auipc                   a0,19                   # 0xffffffc08021846c
0xffffffc080205470:  acb53a23          sd                      a1,-1324(a0)
0xffffffc080205474:  0310000f          fence                   rw,w
0xffffffc080205478:  4509              addi                    a0,zero,2
0xffffffc08020547a:  e288              sd                      a0,0(a3)
0xffffffc08020547c:  8532              mv                      a0,a2
0xffffffc08020547e:  60a2              ld                      ra,8(sp)
0xffffffc080205480:  6402              ld                      s0,0(sp)
0xffffffc080205482:  0141              addi                    sp,sp,16
0xffffffc080205484:  8082              ret                     

----------------
IN: 
Priv: 1; Virt: 0
0xffffffc080200d88:  12051b63          bnez                    a0,310                  # 0xffffffc080200ebe

----------------
IN: 
Priv: 1; Virt: 0
0xffffffc080200d8c:  0a098863          beqz                    s3,176                  # 0xffffffc080200e3c

----------------
IN: 
Priv: 1; Virt: 0
0xffffffc080200d90:  4511              addi                    a0,zero,4
0xffffffc080200d92:  04a48d63          beq                     s1,a0,90                # 0xffffffc080200dec

----------------
IN: 
Priv: 1; Virt: 0
0xffffffc080200d96:  4515              addi                    a0,zero,5
0xffffffc080200d98:  0aa49263          bne                     s1,a0,164               # 0xffffffc080200e3c

----------------
IN: 
Priv: 1; Virt: 0
0xffffffc080200d9c:  00008517          auipc                   a0,8                    # 0xffffffc080208d9c
0xffffffc080200da0:  7e450593          addi                    a1,a0,2020
0xffffffc080200da4:  4615              addi                    a2,zero,5
0xffffffc080200da6:  854e              mv                      a0,s3
0xffffffc080200da8:  00007097          auipc                   ra,7                    # 0xffffffc080207da8
0xffffffc080200dac:  394080e7          jalr                    ra,ra,916

----------------
IN: 
Priv: 1; Virt: 0
0xffffffc080208126:  40e68533          sub                     a0,a3,a4
0xffffffc08020812a:  8082              ret                     

----------------
IN: 
Priv: 1; Virt: 0
0xffffffc080200db0:  2501              sext.w                  a0,a0
0xffffffc080200db2:  cd75              beqz                    a0,252                  # 0xffffffc080200eae

----------------
IN: 
Priv: 1; Virt: 0
0xffffffc080200db4:  00008517          auipc                   a0,8                    # 0xffffffc080208db4
0xffffffc080200db8:  7d150593          addi                    a1,a0,2001
0xffffffc080200dbc:  4615              addi                    a2,zero,5
0xffffffc080200dbe:  854e              mv                      a0,s3
0xffffffc080200dc0:  00007097          auipc                   ra,7                    # 0xffffffc080207dc0
0xffffffc080200dc4:  37c080e7          jalr                    ra,ra,892

----------------
IN: 
Priv: 1; Virt: 0
0xffffffc080200dc8:  2501              sext.w                  a0,a0
0xffffffc080200dca:  c575              beqz                    a0,236                  # 0xffffffc080200eb6

----------------
IN: 
Priv: 1; Virt: 0
0xffffffc080200dcc:  00008517          auipc                   a0,8                    # 0xffffffc080208dcc
0xffffffc080200dd0:  7be50593          addi                    a1,a0,1982
0xffffffc080200dd4:  4615              addi                    a2,zero,5
0xffffffc080200dd6:  854e              mv                      a0,s3
0xffffffc080200dd8:  00007097          auipc                   ra,7                    # 0xffffffc080207dd8
0xffffffc080200ddc:  364080e7          jalr                    ra,ra,868

----------------
IN: 
Priv: 1; Virt: 0
0xffffffc080200de0:  2501              sext.w                  a0,a0
0xffffffc080200de2:  00a03533          snez                    a0,a0
0xffffffc080200de6:  357d              addiw                   a0,a0,-1
0xffffffc080200de8:  8915              andi                    a0,a0,5
0xffffffc080200dea:  a891              j                       84                      # 0xffffffc080200e3e

----------------
IN: 
Priv: 1; Virt: 0
0xffffffc080200e3e:  00099597          auipc                   a1,153                  # 0xffffffc080299e3e
0xffffffc080200e42:  46258593          addi                    a1,a1,1122
0xffffffc080200e46:  e188              sd                      a0,0(a1)
0xffffffc080200e48:  6188              ld                      a0,0(a1)
0xffffffc080200e4a:  00453593          sltiu                   a1,a0,4
0xffffffc080200e4e:  1575              addi                    a0,a0,-3
0xffffffc080200e50:  00a03533          snez                    a0,a0
0xffffffc080200e54:  15fd              addi                    a1,a1,-1
0xffffffc080200e56:  8d4d              or                      a0,a0,a1
0xffffffc080200e58:  c519              beqz                    a0,14                   # 0xffffffc080200e66

----------------
IN: 
Priv: 1; Virt: 0
0xffffffc080200e5a:  0ff57513          andi                    a0,a0,255
0xffffffc080200e5e:  0ff00593          addi                    a1,zero,255
0xffffffc080200e62:  02b51f63          bne                     a0,a1,62                # 0xffffffc080200ea0

----------------
IN: 
Priv: 1; Virt: 0
0xffffffc080200e66:  00008517          auipc                   a0,8                    # 0xffffffc080208e66
0xffffffc080200e6a:  7ba50513          addi                    a0,a0,1978
0xffffffc080200e6e:  faa43023          sd                      a0,-96(s0)
0xffffffc080200e72:  4505              addi                    a0,zero,1
0xffffffc080200e74:  faa43423          sd                      a0,-88(s0)
0xffffffc080200e78:  fc043023          sd                      zero,-64(s0)
0xffffffc080200e7c:  fb243823          sd                      s2,-80(s0)
0xffffffc080200e80:  fa043c23          sd                      zero,-72(s0)
0xffffffc080200e84:  00008517          auipc                   a0,8                    # 0xffffffc080208e84
0xffffffc080200e88:  71c50613          addi                    a2,a0,1820
0xffffffc080200e8c:  fa040513          addi                    a0,s0,-96
0xffffffc080200e90:  458d              addi                    a1,zero,3
0xffffffc080200e92:  04100693          addi                    a3,zero,65
0xffffffc080200e96:  4701              mv                      a4,zero
0xffffffc080200e98:  00004097          auipc                   ra,4                    # 0xffffffc080204e98
0xffffffc080200e9c:  5ee080e7          jalr                    ra,ra,1518

----------------
IN: 
Priv: 1; Virt: 0
0xffffffc080205486:  7135              addi                    sp,sp,-160
0xffffffc080205488:  ed06              sd                      ra,152(sp)
0xffffffc08020548a:  e922              sd                      s0,144(sp)
0xffffffc08020548c:  1100              addi                    s0,sp,160
0xffffffc08020548e:  e761              bnez                    a4,200                  # 0xffffffc080205556

----------------
IN: 
Priv: 1; Virt: 0
0xffffffc080205490:  02863803          ld                      a6,40(a2)
0xffffffc080205494:  02063883          ld                      a7,32(a2)
0xffffffc080205498:  01863283          ld                      t0,24(a2)
0xffffffc08020549c:  01063303          ld                      t1,16(a2)
0xffffffc0802054a0:  00863383          ld                      t2,8(a2)
0xffffffc0802054a4:  6210              ld                      a2,0(a2)
0xffffffc0802054a6:  00053e83          ld                      t4,0(a0)
0xffffffc0802054aa:  7118              ld                      a4,32(a0)
0xffffffc0802054ac:  6d1c              ld                      a5,24(a0)
0xffffffc0802054ae:  00853f83          ld                      t6,8(a0)
0xffffffc0802054b2:  01053f03          ld                      t5,16(a0)
0xffffffc0802054b6:  f6e43423          sd                      a4,-152(s0)
0xffffffc0802054ba:  f6f43023          sd                      a5,-160(s0)
0xffffffc0802054be:  02853e03          ld                      t3,40(a0)
0xffffffc0802054c2:  00095517          auipc                   a0,149                  # 0xffffffc08029a4c2
0xffffffc0802054c6:  dd650513          addi                    a0,a0,-554
0xffffffc0802054ca:  6108              ld                      a0,0(a0)
0xffffffc0802054cc:  4709              addi                    a4,zero,2
0xffffffc0802054ce:  0230000f          fence                   r,rw
0xffffffc0802054d2:  00e50b63          beq                     a0,a4,22                # 0xffffffc0802054e8

----------------
IN: 
Priv: 1; Virt: 0
0xffffffc0802054e8:  00013517          auipc                   a0,19                   # 0xffffffc0802184e8
0xffffffc0802054ec:  a5053503          ld                      a0,-1456(a0)
0xffffffc0802054f0:  00013717          auipc                   a4,19                   # 0xffffffc0802184f0
0xffffffc0802054f4:  a5073703          ld                      a4,-1456(a4)
0xffffffc0802054f8:  fab43023          sd                      a1,-96(s0)
0xffffffc0802054fc:  fac43423          sd                      a2,-88(s0)
0xffffffc080205500:  fa743823          sd                      t2,-80(s0)
0xffffffc080205504:  fdd43023          sd                      t4,-64(s0)
0xffffffc080205508:  f6043583          ld                      a1,-160(s0)
0xffffffc08020550c:  f6843603          ld                      a2,-152(s0)
0xffffffc080205510:  fdf43423          sd                      t6,-56(s0)
0xffffffc080205514:  fde43823          sd                      t5,-48(s0)
0xffffffc080205518:  fcb43c23          sd                      a1,-40(s0)
0xffffffc08020551c:  fec43023          sd                      a2,-32(s0)
0xffffffc080205520:  ffc43423          sd                      t3,-24(s0)
0xffffffc080205524:  f6043823          sd                      zero,-144(s0)
0xffffffc080205528:  f6643c23          sd                      t1,-136(s0)
0xffffffc08020552c:  f8543023          sd                      t0,-128(s0)
0xffffffc080205530:  f8043423          sd                      zero,-120(s0)
0xffffffc080205534:  f9143823          sd                      a7,-112(s0)
0xffffffc080205538:  f9043c23          sd                      a6,-104(s0)
0xffffffc08020553c:  4585              addi                    a1,zero,1
0xffffffc08020553e:  fab42c23          sw                      a1,-72(s0)
0xffffffc080205542:  fad42e23          sw                      a3,-68(s0)
0xffffffc080205546:  7310              ld                      a2,32(a4)
0xffffffc080205548:  f7040593          addi                    a1,s0,-144
0xffffffc08020554c:  9602              jalr                    ra,a2,0

----------------
IN: 
Priv: 1; Virt: 0
0xffffffc080200ab2:  7155              addi                    sp,sp,-208
0xffffffc080200ab4:  e586              sd                      ra,200(sp)
0xffffffc080200ab6:  e1a2              sd                      s0,192(sp)
0xffffffc080200ab8:  0980              addi                    s0,sp,208
0xffffffc080200aba:  7988              ld                      a0,48(a1)
0xffffffc080200abc:  6d90              ld                      a2,24(a1)
0xffffffc080200abe:  fff50693          addi                    a3,a0,-1
0xffffffc080200ac2:  068e              slli                    a3,a3,3
0xffffffc080200ac4:  00008717          auipc                   a4,8                    # 0xffffffc080208ac4
0xffffffc080200ac8:  76470713          addi                    a4,a4,1892
0xffffffc080200acc:  96ba              add                     a3,a3,a4
0xffffffc080200ace:  7198              ld                      a4,32(a1)
0xffffffc080200ad0:  6294              ld                      a3,0(a3)
0xffffffc080200ad2:  1679              addi                    a2,a2,-2
0xffffffc080200ad4:  00163613          seqz                    a2,a2
0xffffffc080200ad8:  167d              addi                    a2,a2,-1
0xffffffc080200ada:  8e79              and                     a2,a2,a4
0xffffffc080200adc:  8682              jr                      a3

----------------
IN: 
Priv: 1; Virt: 0
0xffffffc080200ae8:  02200693          addi                    a3,zero,34
0xffffffc080200aec:  a031              j                       12                      # 0xffffffc080200af8

----------------
IN: 
Priv: 1; Virt: 0
0xffffffc080200af8:  f2d40fa3          sb                      a3,-193(s0)
0xffffffc080200afc:  7598              ld                      a4,40(a1)
0xffffffc080200afe:  45bc              lw                      a5,72(a1)
0xffffffc080200b00:  45f4              lw                      a3,76(a1)
0xffffffc080200b02:  fca43023          sd                      a0,-64(s0)
0xffffffc080200b06:  c269              beqz                    a2,194                  # 0xffffffc080200bc8

----------------
IN: 
Priv: 1; Virt: 0
0xffffffc080200b08:  fcc43423          sd                      a2,-56(s0)
0xffffffc080200b0c:  fce43823          sd                      a4,-48(s0)
0xffffffc080200b10:  c7e1              beqz                    a5,200                  # 0xffffffc080200bd8

----------------
IN: 
Priv: 1; Virt: 0
0xffffffc080200b12:  fcd42e23          sw                      a3,-36(s0)
0xffffffc080200b16:  05058513          addi                    a0,a1,80
0xffffffc080200b1a:  fea43023          sd                      a0,-32(s0)
0xffffffc080200b1e:  f3f40513          addi                    a0,s0,-193
0xffffffc080200b22:  f6a43823          sd                      a0,-144(s0)
0xffffffc080200b26:  00007517          auipc                   a0,7                    # 0xffffffc080207b26
0xffffffc080200b2a:  35050513          addi                    a0,a0,848
0xffffffc080200b2e:  f6a43c23          sd                      a0,-136(s0)
0xffffffc080200b32:  fc040513          addi                    a0,s0,-64
0xffffffc080200b36:  f8a43023          sd                      a0,-128(s0)
0xffffffc080200b3a:  00005517          auipc                   a0,5                    # 0xffffffc080205b3a
0xffffffc080200b3e:  87e50513          addi                    a0,a0,-1922
0xffffffc080200b42:  f8a43423          sd                      a0,-120(s0)
0xffffffc080200b46:  fc840513          addi                    a0,s0,-56
0xffffffc080200b4a:  f8a43823          sd                      a0,-112(s0)
0xffffffc080200b4e:  fffff517          auipc                   a0,-1                   # 0xffffffc0801ffb4e
0xffffffc080200b52:  60650513          addi                    a0,a0,1542
0xffffffc080200b56:  f8a43c23          sd                      a0,-104(s0)
0xffffffc080200b5a:  fdc40513          addi                    a0,s0,-36
0xffffffc080200b5e:  faa43023          sd                      a0,-96(s0)
0xffffffc080200b62:  00007517          auipc                   a0,7                    # 0xffffffc080207b62
0xffffffc080200b66:  34c50513          addi                    a0,a0,844
0xffffffc080200b6a:  faa43423          sd                      a0,-88(s0)
0xffffffc080200b6e:  fe040513          addi                    a0,s0,-32
0xffffffc080200b72:  faa43823          sd                      a0,-80(s0)
0xffffffc080200b76:  fffff517          auipc                   a0,-1                   # 0xffffffc0801ffb76
0xffffffc080200b7a:  5c650513          addi                    a0,a0,1478
0xffffffc080200b7e:  faa43c23          sd                      a0,-72(s0)
0xffffffc080200b82:  00009517          auipc                   a0,9                    # 0xffffffc080209b82
0xffffffc080200b86:  94650513          addi                    a0,a0,-1722
0xffffffc080200b8a:  f4a43023          sd                      a0,-192(s0)
0xffffffc080200b8e:  4519              addi                    a0,zero,6
0xffffffc080200b90:  f4a43423          sd                      a0,-184(s0)
0xffffffc080200b94:  f6043023          sd                      zero,-160(s0)
0xffffffc080200b98:  f7040513          addi                    a0,s0,-144
0xffffffc080200b9c:  f4a43823          sd                      a0,-176(s0)
0xffffffc080200ba0:  4515              addi                    a0,zero,5
0xffffffc080200ba2:  f4a43c23          sd                      a0,-168(s0)
0xffffffc080200ba6:  00009517          auipc                   a0,9                    # 0xffffffc080209ba6
0xffffffc080200baa:  81250593          addi                    a1,a0,-2030
0xffffffc080200bae:  fef40513          addi                    a0,s0,-17
0xffffffc080200bb2:  f4040613          addi                    a2,s0,-192
0xffffffc080200bb6:  00005097          auipc                   ra,5                    # 0xffffffc080205bb6
0xffffffc080200bba:  70c080e7          jalr                    ra,ra,1804

----------------
IN: 
Priv: 1; Virt: 0
0xffffffc0802063be:  0109b403          ld                      s0,16(s3)
0xffffffc0802063c2:  4a81              mv                      s5,zero
0xffffffc0802063c4:  00451a13          slli                    s4,a0,4
0xffffffc0802063c8:  9a22              add                     s4,s4,s0
0xffffffc0802063ca:  0009b483          ld                      s1,0(s3)
0xffffffc0802063ce:  157d              addi                    a0,a0,-1
0xffffffc0802063d0:  0512              slli                    a0,a0,4
0xffffffc0802063d2:  8111              srli                    a0,a0,4
0xffffffc0802063d4:  00150913          addi                    s2,a0,1
0xffffffc0802063d8:  04a1              addi                    s1,s1,8
0xffffffc0802063da:  6090              ld                      a2,0(s1)
0xffffffc0802063dc:  ca01              beqz                    a2,16                   # 0xffffffc0802063ec

----------------
IN: 
Priv: 1; Virt: 0
0xffffffc0802063de:  76a2              ld                      a3,40(sp)
0xffffffc0802063e0:  7502              ld                      a0,32(sp)
0xffffffc0802063e2:  ff84b583          ld                      a1,-8(s1)
0xffffffc0802063e6:  6e94              ld                      a3,24(a3)
0xffffffc0802063e8:  9682              jalr                    ra,a3,0

----------------
IN: 
Priv: 1; Virt: 0
0xffffffc080200c20:  1101              addi                    sp,sp,-32
0xffffffc080200c22:  ec06              sd                      ra,24(sp)
0xffffffc080200c24:  e822              sd                      s0,16(sp)
0xffffffc080200c26:  1000              addi                    s0,sp,32
0xffffffc080200c28:  fe042623          sw                      zero,-20(s0)
0xffffffc080200c2c:  12060363          beqz                    a2,294                  # 0xffffffc080200d52

----------------
IN: 
Priv: 1; Virt: 0
0xffffffc080200c30:  962e              add                     a2,a2,a1
0xffffffc080200c32:  0df00313          addi                    t1,zero,223
0xffffffc080200c36:  0f000293          addi                    t0,zero,240
0xffffffc080200c3a:  00110837          lui                     a6,272
0xffffffc080200c3e:  08000393          addi                    t2,zero,128
0xffffffc080200c42:  4885              addi                    a7,zero,1
0xffffffc080200c44:  00058683          lb                      a3,0(a1)
0xffffffc080200c48:  0ff6f513          andi                    a0,a3,255
0xffffffc080200c4c:  0006c463          bltz                    a3,8                    # 0xffffffc080200c54

----------------
IN: 
Priv: 1; Virt: 0
0xffffffc080200c50:  0585              addi                    a1,a1,1
0xffffffc080200c52:  a0b1              j                       76                      # 0xffffffc080200c9e

----------------
IN: 
Priv: 1; Virt: 0
0xffffffc080200c9e:  fea40623          sb                      a0,-20(s0)
0xffffffc080200ca2:  4705              addi                    a4,zero,1
0xffffffc080200ca4:  fec40693          addi                    a3,s0,-20
0xffffffc080200ca8:  0006c503          lbu                     a0,0(a3)
0xffffffc080200cac:  00000073          ecall                   

riscv_cpu_do_interrupt: hart:0, async:0, cause:0000000000000009, epc:0xffffffc080200cac, tval:0x0000000000000000, desc=supervisor_ecall
----------------
IN: 
Priv: 1; Virt: 0
0xffffffc080200cb0:  0685              addi                    a3,a3,1
0xffffffc080200cb2:  177d              addi                    a4,a4,-1
0xffffffc080200cb4:  fb75              bnez                    a4,-12                  # 0xffffffc080200ca8

----------------
IN: 
Priv: 1; Virt: 0
0xffffffc080200cb6:  f8c597e3          bne                     a1,a2,-114              # 0xffffffc080200c44

----------------
IN: 
Priv: 1; Virt: 0
0xffffffc080200c44:  00058683          lb                      a3,0(a1)
0xffffffc080200c48:  0ff6f513          andi                    a0,a3,255
0xffffffc080200c4c:  0006c463          bltz                    a3,8                    # 0xffffffc080200c54

riscv_cpu_do_interrupt: hart:0, async:0, cause:0000000000000009, epc:0xffffffc080200cac, tval:0x0000000000000000, desc=supervisor_ecall
----------------
IN: 
Priv: 1; Virt: 0
0xffffffc080200cba:  a861              j                       152                     # 0xffffffc080200d52

----------------
IN: 
Priv: 1; Virt: 0
0xffffffc080200d52:  4501              mv                      a0,zero
0xffffffc080200d54:  60e2              ld                      ra,24(sp)
0xffffffc080200d56:  6442              ld                      s0,16(sp)
0xffffffc080200d58:  6105              addi                    sp,sp,32
0xffffffc080200d5a:  8082              ret                     

----------------
IN: 
Priv: 1; Virt: 0
0xffffffc0802063ea:  e131              bnez                    a0,68                   # 0xffffffc08020642e

----------------
IN: 
Priv: 1; Virt: 0
0xffffffc0802063ec:  6008              ld                      a0,0(s0)
0xffffffc0802063ee:  6410              ld                      a2,8(s0)
0xffffffc0802063f0:  858a              mv                      a1,sp
0xffffffc0802063f2:  9602              jalr                    ra,a2,0

----------------
IN: 
Priv: 1; Virt: 0
0xffffffc080207e76:  00054503          lbu                     a0,0(a0)
0xffffffc080207e7a:  862e              mv                      a2,a1
0xffffffc080207e7c:  4585              addi                    a1,zero,1
0xffffffc080207e7e:  00000317          auipc                   t1,0                    # 0xffffffc080207e7e
0xffffffc080207e82:  e9430067          jalr                    zero,t1,-364

----------------
IN: 
Priv: 1; Virt: 0
0xffffffc080207d12:  7139              addi                    sp,sp,-64
0xffffffc080207d14:  fc06              sd                      ra,56(sp)
0xffffffc080207d16:  f822              sd                      s0,48(sp)
0xffffffc080207d18:  f426              sd                      s1,40(sp)
0xffffffc080207d1a:  8832              mv                      a6,a2
0xffffffc080207d1c:  00455693          srli                    a3,a0,4
0xffffffc080207d20:  02700713          addi                    a4,zero,39
0xffffffc080207d24:  27100793          addi                    a5,zero,625
0xffffffc080207d28:  00006617          auipc                   a2,6                    # 0xffffffc08020dd28
0xffffffc080207d2c:  fa060f13          addi                    t5,a2,-96
0xffffffc080207d30:  02f6f363          bleu                    a5,a3,38                # 0xffffffc080207d56

----------------
IN: 
Priv: 1; Virt: 0
0xffffffc080207d34:  06300693          addi                    a3,zero,99
0xffffffc080207d38:  0aa6ea63          bgtu                    a0,a3,180               # 0xffffffc080207dec

----------------
IN: 
Priv: 1; Virt: 0
0xffffffc080207d3c:  4629              addi                    a2,zero,10
0xffffffc080207d3e:  0ec57863          bleu                    a2,a0,240               # 0xffffffc080207e2e

----------------
IN: 
Priv: 1; Virt: 0
0xffffffc080207e2e:  0506              slli                    a0,a0,1
0xffffffc080207e30:  ffe70693          addi                    a3,a4,-2
0xffffffc080207e34:  957a              add                     a0,a0,t5
0xffffffc080207e36:  00154603          lbu                     a2,1(a0)
0xffffffc080207e3a:  00054503          lbu                     a0,0(a0)
0xffffffc080207e3e:  00110713          addi                    a4,sp,1
0xffffffc080207e42:  9736              add                     a4,a4,a3
0xffffffc080207e44:  00c700a3          sb                      a2,1(a4)
0xffffffc080207e48:  00a70023          sb                      a0,0(a4)
0xffffffc080207e4c:  00110713          addi                    a4,sp,1
0xffffffc080207e50:  9736              add                     a4,a4,a3
0xffffffc080207e52:  02700793          addi                    a5,zero,39
0xffffffc080207e56:  8f95              sub                     a5,a5,a3
0xffffffc080207e58:  00006517          auipc                   a0,6                    # 0xffffffc08020de58
0xffffffc080207e5c:  c2850613          addi                    a2,a0,-984
0xffffffc080207e60:  8542              mv                      a0,a6
0xffffffc080207e62:  4681              mv                      a3,zero
0xffffffc080207e64:  ffffe097          auipc                   ra,-2                   # 0xffffffc080205e64
0xffffffc080207e68:  5e8080e7          jalr                    ra,ra,1512

----------------
IN: 
Priv: 1; Virt: 0
0xffffffc08020644c:  7159              addi                    sp,sp,-112
0xffffffc08020644e:  f486              sd                      ra,104(sp)
0xffffffc080206450:  f0a2              sd                      s0,96(sp)
0xffffffc080206452:  eca6              sd                      s1,88(sp)
0xffffffc080206454:  e8ca              sd                      s2,80(sp)
0xffffffc080206456:  e4ce              sd                      s3,72(sp)
0xffffffc080206458:  e0d2              sd                      s4,64(sp)
0xffffffc08020645a:  fc56              sd                      s5,56(sp)
0xffffffc08020645c:  f85a              sd                      s6,48(sp)
0xffffffc08020645e:  f45e              sd                      s7,40(sp)
0xffffffc080206460:  f062              sd                      s8,32(sp)
0xffffffc080206462:  ec66              sd                      s9,24(sp)
0xffffffc080206464:  e86a              sd                      s10,16(sp)
0xffffffc080206466:  e46e              sd                      s11,8(sp)
0xffffffc080206468:  89be              mv                      s3,a5
0xffffffc08020646a:  893a              mv                      s2,a4
0xffffffc08020646c:  8b36              mv                      s6,a3
0xffffffc08020646e:  8a32              mv                      s4,a2
0xffffffc080206470:  8c2a              mv                      s8,a0
0xffffffc080206472:  c1b9              beqz                    a1,70                   # 0xffffffc0802064b8

----------------
IN: 
Priv: 1; Virt: 0
0xffffffc080206474:  034c6403          lwu                     s0,52(s8)
0xffffffc080206478:  00147c93          andi                    s9,s0,1
0xffffffc08020647c:  00110ab7          lui                     s5,272
0xffffffc080206480:  000c8463          beqz                    s9,8                    # 0xffffffc080206488

----------------
IN: 
Priv: 1; Virt: 0
0xffffffc080206488:  9cce              add                     s9,s9,s3
0xffffffc08020648a:  00447513          andi                    a0,s0,4
0xffffffc08020648e:  cd15              beqz                    a0,60                   # 0xffffffc0802064ca

----------------
IN: 
Priv: 1; Virt: 0
0xffffffc0802064ca:  4a01              mv                      s4,zero
0xffffffc0802064cc:  000c3503          ld                      a0,0(s8)
0xffffffc0802064d0:  ed01              bnez                    a0,24                   # 0xffffffc0802064e8

----------------
IN: 
Priv: 1; Virt: 0
0xffffffc0802064d2:  a815              j                       52                      # 0xffffffc080206506

----------------
IN: 
Priv: 1; Virt: 0
0xffffffc080206506:  020c3403          ld                      s0,32(s8)
0xffffffc08020650a:  028c3483          ld                      s1,40(s8)
0xffffffc08020650e:  8522              mv                      a0,s0
0xffffffc080206510:  85a6              mv                      a1,s1
0xffffffc080206512:  8656              mv                      a2,s5
0xffffffc080206514:  86d2              mv                      a3,s4
0xffffffc080206516:  875a              mv                      a4,s6
0xffffffc080206518:  00000097          auipc                   ra,0                    # 0xffffffc080206518
0xffffffc08020651c:  140080e7          jalr                    ra,ra,320

----------------
IN: 
Priv: 1; Virt: 0
0xffffffc080206658:  7179              addi                    sp,sp,-48
0xffffffc08020665a:  f406              sd                      ra,40(sp)
0xffffffc08020665c:  f022              sd                      s0,32(sp)
0xffffffc08020665e:  ec26              sd                      s1,24(sp)
0xffffffc080206660:  e84a              sd                      s2,16(sp)
0xffffffc080206662:  e44e              sd                      s3,8(sp)
0xffffffc080206664:  0006079b          sext.w                  a5,a2
0xffffffc080206668:  00110837          lui                     a6,272
0xffffffc08020666c:  893a              mv                      s2,a4
0xffffffc08020666e:  84b6              mv                      s1,a3
0xffffffc080206670:  842e              mv                      s0,a1
0xffffffc080206672:  89aa              mv                      s3,a0
0xffffffc080206674:  01078963          beq                     a5,a6,18                # 0xffffffc080206686

----------------
IN: 
Priv: 1; Virt: 0
0xffffffc080206686:  cc81              beqz                    s1,24                   # 0xffffffc08020669e

----------------
IN: 
Priv: 1; Virt: 0
0xffffffc08020669e:  4501              mv                      a0,zero
0xffffffc0802066a0:  70a2              ld                      ra,40(sp)
0xffffffc0802066a2:  7402              ld                      s0,32(sp)
0xffffffc0802066a4:  64e2              ld                      s1,24(sp)
0xffffffc0802066a6:  6942              ld                      s2,16(sp)
0xffffffc0802066a8:  69a2              ld                      s3,8(sp)
0xffffffc0802066aa:  6145              addi                    sp,sp,48
0xffffffc0802066ac:  8082              ret                     

----------------
IN: 
Priv: 1; Virt: 0
0xffffffc080206520:  4b85              addi                    s7,zero,1
0xffffffc080206522:  c10d              beqz                    a0,34                   # 0xffffffc080206544

----------------
IN: 
Priv: 1; Virt: 0
0xffffffc080206544:  6c9c              ld                      a5,24(s1)
0xffffffc080206546:  8522              mv                      a0,s0
0xffffffc080206548:  85ca              mv                      a1,s2
0xffffffc08020654a:  864e              mv                      a2,s3
0xffffffc08020654c:  70a6              ld                      ra,104(sp)
0xffffffc08020654e:  7406              ld                      s0,96(sp)
0xffffffc080206550:  64e6              ld                      s1,88(sp)
0xffffffc080206552:  6946              ld                      s2,80(sp)
0xffffffc080206554:  69a6              ld                      s3,72(sp)
0xffffffc080206556:  6a06              ld                      s4,64(sp)
0xffffffc080206558:  7ae2              ld                      s5,56(sp)
0xffffffc08020655a:  7b42              ld                      s6,48(sp)
0xffffffc08020655c:  7ba2              ld                      s7,40(sp)
0xffffffc08020655e:  7c02              ld                      s8,32(sp)
0xffffffc080206560:  6ce2              ld                      s9,24(sp)
0xffffffc080206562:  6d42              ld                      s10,16(sp)
0xffffffc080206564:  6da2              ld                      s11,8(sp)
0xffffffc080206566:  6165              addi                    sp,sp,112
0xffffffc080206568:  8782              jr                      a5

riscv_cpu_do_interrupt: hart:0, async:0, cause:0000000000000009, epc:0xffffffc080200cac, tval:0x0000000000000000, desc=supervisor_ecall
riscv_cpu_do_interrupt: hart:0, async:0, cause:0000000000000009, epc:0xffffffc080200cac, tval:0x0000000000000000, desc=supervisor_ecall
----------------
IN: 
Priv: 1; Virt: 0
0xffffffc080207e6c:  70e2              ld                      ra,56(sp)
0xffffffc080207e6e:  7442              ld                      s0,48(sp)
0xffffffc080207e70:  74a2              ld                      s1,40(sp)
0xffffffc080207e72:  6121              addi                    sp,sp,64
0xffffffc080207e74:  8082              ret                     

----------------
IN: 
Priv: 1; Virt: 0
0xffffffc0802063f4:  ed0d              bnez                    a0,58                   # 0xffffffc08020642e

----------------
IN: 
Priv: 1; Virt: 0
0xffffffc0802063f6:  04c1              addi                    s1,s1,16
0xffffffc0802063f8:  0441              addi                    s0,s0,16
0xffffffc0802063fa:  0a85              addi                    s5,s5,1
0xffffffc0802063fc:  fd441fe3          bne                     s0,s4,-34               # 0xffffffc0802063da

----------------
IN: 
Priv: 1; Virt: 0
0xffffffc0802063da:  6090              ld                      a2,0(s1)
0xffffffc0802063dc:  ca01              beqz                    a2,16                   # 0xffffffc0802063ec

riscv_cpu_do_interrupt: hart:0, async:0, cause:0000000000000009, epc:0xffffffc080200cac, tval:0x0000000000000000, desc=supervisor_ecall
riscv_cpu_do_interrupt: hart:0, async:0, cause:0000000000000009, epc:0xffffffc080200cac, tval:0x0000000000000000, desc=supervisor_ecall
----------------
IN: 
Priv: 1; Virt: 0
0xffffffc0802053b8:  1141              addi                    sp,sp,-16
0xffffffc0802053ba:  e406              sd                      ra,8(sp)
0xffffffc0802053bc:  e022              sd                      s0,0(sp)
0xffffffc0802053be:  0800              addi                    s0,sp,16
0xffffffc0802053c0:  6108              ld                      a0,0(a0)
0xffffffc0802053c2:  0512              slli                    a0,a0,4
0xffffffc0802053c4:  00008617          auipc                   a2,8                    # 0xffffffc08020d3c4
0xffffffc0802053c8:  35c60613          addi                    a2,a2,860
0xffffffc0802053cc:  9532              add                     a0,a0,a2
0xffffffc0802053ce:  6114              ld                      a3,0(a0)
0xffffffc0802053d0:  6510              ld                      a2,8(a0)
0xffffffc0802053d2:  852e              mv                      a0,a1
0xffffffc0802053d4:  85b6              mv                      a1,a3
0xffffffc0802053d6:  60a2              ld                      ra,8(sp)
0xffffffc0802053d8:  6402              ld                      s0,0(sp)
0xffffffc0802053da:  0141              addi                    sp,sp,16
0xffffffc0802053dc:  00001317          auipc                   t1,1                    # 0xffffffc0802063dc
0xffffffc0802053e0:  2d230067          jalr                    zero,t1,722

----------------
IN: 
Priv: 1; Virt: 0
0xffffffc0802066ae:  7139              addi                    sp,sp,-64
0xffffffc0802066b0:  fc06              sd                      ra,56(sp)
0xffffffc0802066b2:  f822              sd                      s0,48(sp)
0xffffffc0802066b4:  f426              sd                      s1,40(sp)
0xffffffc0802066b6:  f04a              sd                      s2,32(sp)
0xffffffc0802066b8:  ec4e              sd                      s3,24(sp)
0xffffffc0802066ba:  e852              sd                      s4,16(sp)
0xffffffc0802066bc:  e456              sd                      s5,8(sp)
0xffffffc0802066be:  e05a              sd                      s6,0(sp)
0xffffffc0802066c0:  8b2a              mv                      s6,a0
0xffffffc0802066c2:  00053283          ld                      t0,0(a0)
0xffffffc0802066c6:  6908              ld                      a0,16(a0)
0xffffffc0802066c8:  00a2e6b3          or                      a3,t0,a0
0xffffffc0802066cc:  89b2              mv                      s3,a2
0xffffffc0802066ce:  892e              mv                      s2,a1
0xffffffc0802066d0:  16068863          beqz                    a3,368                  # 0xffffffc080206840

----------------
IN: 
Priv: 1; Virt: 0
0xffffffc080206840:  028b3583          ld                      a1,40(s6)
0xffffffc080206844:  020b3503          ld                      a0,32(s6)
0xffffffc080206848:  6d9c              ld                      a5,24(a1)
0xffffffc08020684a:  85ca              mv                      a1,s2
0xffffffc08020684c:  864e              mv                      a2,s3
0xffffffc08020684e:  70e2              ld                      ra,56(sp)
0xffffffc080206850:  7442              ld                      s0,48(sp)
0xffffffc080206852:  74a2              ld                      s1,40(sp)
0xffffffc080206854:  7902              ld                      s2,32(sp)
0xffffffc080206856:  69e2              ld                      s3,24(sp)
0xffffffc080206858:  6a42              ld                      s4,16(sp)
0xffffffc08020685a:  6aa2              ld                      s5,8(sp)
0xffffffc08020685c:  6b02              ld                      s6,0(sp)
0xffffffc08020685e:  6121              addi                    sp,sp,64
0xffffffc080206860:  8782              jr                      a5

riscv_cpu_do_interrupt: hart:0, async:0, cause:0000000000000009, epc:0xffffffc080200cac, tval:0x0000000000000000, desc=supervisor_ecall
riscv_cpu_do_interrupt: hart:0, async:0, cause:0000000000000009, epc:0xffffffc080200cac, tval:0x0000000000000000, desc=supervisor_ecall
riscv_cpu_do_interrupt: hart:0, async:0, cause:0000000000000009, epc:0xffffffc080200cac, tval:0x0000000000000000, desc=supervisor_ecall
riscv_cpu_do_interrupt: hart:0, async:0, cause:0000000000000009, epc:0xffffffc080200cac, tval:0x0000000000000000, desc=supervisor_ecall
riscv_cpu_do_interrupt: hart:0, async:0, cause:0000000000000009, epc:0xffffffc080200cac, tval:0x0000000000000000, desc=supervisor_ecall
riscv_cpu_do_interrupt: hart:0, async:0, cause:0000000000000009, epc:0xffffffc080200cac, tval:0x0000000000000000, desc=supervisor_ecall
----------------
IN: 
Priv: 1; Virt: 0
0xffffffc080200154:  1141              addi                    sp,sp,-16
0xffffffc080200156:  e406              sd                      ra,8(sp)
0xffffffc080200158:  e022              sd                      s0,0(sp)
0xffffffc08020015a:  0800              addi                    s0,sp,16
0xffffffc08020015c:  6110              ld                      a2,0(a0)
0xffffffc08020015e:  6514              ld                      a3,8(a0)
0xffffffc080200160:  872e              mv                      a4,a1
0xffffffc080200162:  8532              mv                      a0,a2
0xffffffc080200164:  85b6              mv                      a1,a3
0xffffffc080200166:  863a              mv                      a2,a4
0xffffffc080200168:  60a2              ld                      ra,8(sp)
0xffffffc08020016a:  6402              ld                      s0,0(sp)
0xffffffc08020016c:  0141              addi                    sp,sp,16
0xffffffc08020016e:  00007317          auipc                   t1,7                    # 0xffffffc08020716e
0xffffffc080200172:  cac30067          jalr                    zero,t1,-852

----------------
IN: 
Priv: 1; Virt: 0
0xffffffc080206e1a:  86ae              mv                      a3,a1
0xffffffc080206e1c:  85aa              mv                      a1,a0
0xffffffc080206e1e:  8532              mv                      a0,a2
0xffffffc080206e20:  8636              mv                      a2,a3
0xffffffc080206e22:  00000317          auipc                   t1,0                    # 0xffffffc080206e22
0xffffffc080206e26:  88c30067          jalr                    zero,t1,-1908

riscv_cpu_do_interrupt: hart:0, async:0, cause:0000000000000009, epc:0xffffffc080200cac, tval:0x0000000000000000, desc=supervisor_ecall
riscv_cpu_do_interrupt: hart:0, async:0, cause:0000000000000009, epc:0xffffffc080200cac, tval:0x0000000000000000, desc=supervisor_ecall
riscv_cpu_do_interrupt: hart:0, async:0, cause:0000000000000009, epc:0xffffffc080200cac, tval:0x0000000000000000, desc=supervisor_ecall
riscv_cpu_do_interrupt: hart:0, async:0, cause:0000000000000009, epc:0xffffffc080200cac, tval:0x0000000000000000, desc=supervisor_ecall
riscv_cpu_do_interrupt: hart:0, async:0, cause:0000000000000009, epc:0xffffffc080200cac, tval:0x0000000000000000, desc=supervisor_ecall
riscv_cpu_do_interrupt: hart:0, async:0, cause:0000000000000009, epc:0xffffffc080200cac, tval:0x0000000000000000, desc=supervisor_ecall
riscv_cpu_do_interrupt: hart:0, async:0, cause:0000000000000009, epc:0xffffffc080200cac, tval:0x0000000000000000, desc=supervisor_ecall
riscv_cpu_do_interrupt: hart:0, async:0, cause:0000000000000009, epc:0xffffffc080200cac, tval:0x0000000000000000, desc=supervisor_ecall
riscv_cpu_do_interrupt: hart:0, async:0, cause:0000000000000009, epc:0xffffffc080200cac, tval:0x0000000000000000, desc=supervisor_ecall
riscv_cpu_do_interrupt: hart:0, async:0, cause:0000000000000009, epc:0xffffffc080200cac, tval:0x0000000000000000, desc=supervisor_ecall
riscv_cpu_do_interrupt: hart:0, async:0, cause:0000000000000009, epc:0xffffffc080200cac, tval:0x0000000000000000, desc=supervisor_ecall
riscv_cpu_do_interrupt: hart:0, async:0, cause:0000000000000009, epc:0xffffffc080200cac, tval:0x0000000000000000, desc=supervisor_ecall
riscv_cpu_do_interrupt: hart:0, async:0, cause:0000000000000009, epc:0xffffffc080200cac, tval:0x0000000000000000, desc=supervisor_ecall
riscv_cpu_do_interrupt: hart:0, async:0, cause:0000000000000009, epc:0xffffffc080200cac, tval:0x0000000000000000, desc=supervisor_ecall
riscv_cpu_do_interrupt: hart:0, async:0, cause:0000000000000009, epc:0xffffffc080200cac, tval:0x0000000000000000, desc=supervisor_ecall
----------------
IN: 
Priv: 1; Virt: 0
0xffffffc080207eae:  00056503          lwu                     a0,0(a0)
0xffffffc080207eb2:  862e              mv                      a2,a1
0xffffffc080207eb4:  4585              addi                    a1,zero,1
0xffffffc080207eb6:  00000317          auipc                   t1,0                    # 0xffffffc080207eb6
0xffffffc080207eba:  e5c30067          jalr                    zero,t1,-420

riscv_cpu_do_interrupt: hart:0, async:1, cause:0000000000000007, epc:0xffffffc080207eae, tval:0x0000000000000000, desc=m_timer
----------------
IN: 
Priv: 3; Virt: 0
0x800016ac:  0160006f          j                       22                      # 0x800016c2

----------------
IN: 
Priv: 3; Virt: 0
0x800016c2:  34011173          csrrw                   sp,mscratch,sp

----------------
IN: 
Priv: 3; Virt: 0
0x800016c6:  1101              addi                    sp,sp,-32
0x800016c8:  e006              sd                      ra,0(sp)
0x800016ca:  e42a              sd                      a0,8(sp)
0x800016cc:  e82e              sd                      a1,16(sp)
0x800016ce:  ec32              sd                      a2,24(sp)
0x800016d0:  00027517          auipc                   a0,39                   # 0x800286d0
0x800016d4:  8f850513          addi                    a0,a0,-1800
0x800016d8:  6108              ld                      a0,0(a0)
0x800016da:  f14025f3          csrrs                   a1,mhartid,zero

----------------
IN: 
Priv: 3; Virt: 0
0x800016de:  567d              addi                    a2,zero,-1
0x800016e0:  00002097          auipc                   ra,2                    # 0x800036e0
0x800016e4:  212080e7          jalr                    ra,ra,530

----------------
IN: 
Priv: 3; Virt: 0
0x800038f2:  058e              slli                    a1,a1,3
0x800038f4:  952e              add                     a0,a0,a1
0x800038f6:  6591              lui                     a1,4
0x800038f8:  952e              add                     a0,a0,a1
0x800038fa:  e110              sd                      a2,0(a0)
0x800038fc:  8082              ret                     

----------------
IN: 
Priv: 3; Virt: 0
0x800038fa:  e110              sd                      a2,0(a0)

----------------
IN: 
Priv: 3; Virt: 0
0x800038fc:  8082              ret                     

----------------
IN: 
Priv: 3; Virt: 0
0x800016e8:  02000513          addi                    a0,zero,32
0x800016ec:  34452073          csrrs                   zero,mip,a0

----------------
IN: 
Priv: 3; Virt: 0
0x800016f0:  6082              ld                      ra,0(sp)
0x800016f2:  6522              ld                      a0,8(sp)
0x800016f4:  65c2              ld                      a1,16(sp)
0x800016f6:  6662              ld                      a2,24(sp)
0x800016f8:  6105              addi                    sp,sp,32
0x800016fa:  34011173          csrrw                   sp,mscratch,sp

----------------
IN: 
Priv: 3; Virt: 0
0x800016fe:  30200073          mret                    

riscv_cpu_do_interrupt: hart:0, async:0, cause:0000000000000009, epc:0xffffffc080200cac, tval:0x0000000000000000, desc=supervisor_ecall
riscv_cpu_do_interrupt: hart:0, async:0, cause:0000000000000009, epc:0xffffffc080200cac, tval:0x0000000000000000, desc=supervisor_ecall
riscv_cpu_do_interrupt: hart:0, async:0, cause:0000000000000009, epc:0xffffffc080200cac, tval:0x0000000000000000, desc=supervisor_ecall
----------------
IN: 
Priv: 1; Virt: 0
0xffffffc08020013c:  1141              addi                    sp,sp,-16
0xffffffc08020013e:  e406              sd                      ra,8(sp)
0xffffffc080200140:  e022              sd                      s0,0(sp)
0xffffffc080200142:  0800              addi                    s0,sp,16
0xffffffc080200144:  6108              ld                      a0,0(a0)
0xffffffc080200146:  60a2              ld                      ra,8(sp)
0xffffffc080200148:  6402              ld                      s0,0(sp)
0xffffffc08020014a:  0141              addi                    sp,sp,16
0xffffffc08020014c:  00006317          auipc                   t1,6                    # 0xffffffc08020614c
0xffffffc080200150:  16430067          jalr                    zero,t1,356

----------------
IN: 
Priv: 1; Virt: 0
0xffffffc0802062b0:  7190              ld                      a2,32(a1)
0xffffffc0802062b2:  758c              ld                      a1,40(a1)
0xffffffc0802062b4:  86aa              mv                      a3,a0
0xffffffc0802062b6:  8532              mv                      a0,a2
0xffffffc0802062b8:  8636              mv                      a2,a3
0xffffffc0802062ba:  00000317          auipc                   t1,0                    # 0xffffffc0802062ba
0xffffffc0802062be:  00830067          jalr                    zero,t1,8

riscv_cpu_do_interrupt: hart:0, async:0, cause:0000000000000009, epc:0xffffffc080200cac, tval:0x0000000000000000, desc=supervisor_ecall
riscv_cpu_do_interrupt: hart:0, async:0, cause:0000000000000009, epc:0xffffffc080200cac, tval:0x0000000000000000, desc=supervisor_ecall
riscv_cpu_do_interrupt: hart:0, async:0, cause:0000000000000009, epc:0xffffffc080200cac, tval:0x0000000000000000, desc=supervisor_ecall
riscv_cpu_do_interrupt: hart:0, async:0, cause:0000000000000009, epc:0xffffffc080200cac, tval:0x0000000000000000, desc=supervisor_ecall
riscv_cpu_do_interrupt: hart:0, async:0, cause:0000000000000009, epc:0xffffffc080200cac, tval:0x0000000000000000, desc=supervisor_ecall
riscv_cpu_do_interrupt: hart:0, async:0, cause:0000000000000009, epc:0xffffffc080200cac, tval:0x0000000000000000, desc=supervisor_ecall
riscv_cpu_do_interrupt: hart:0, async:0, cause:0000000000000009, epc:0xffffffc080200cac, tval:0x0000000000000000, desc=supervisor_ecall
riscv_cpu_do_interrupt: hart:0, async:0, cause:0000000000000009, epc:0xffffffc080200cac, tval:0x0000000000000000, desc=supervisor_ecall
riscv_cpu_do_interrupt: hart:0, async:0, cause:0000000000000009, epc:0xffffffc080200cac, tval:0x0000000000000000, desc=supervisor_ecall
riscv_cpu_do_interrupt: hart:0, async:0, cause:0000000000000009, epc:0xffffffc080200cac, tval:0x0000000000000000, desc=supervisor_ecall
riscv_cpu_do_interrupt: hart:0, async:0, cause:0000000000000009, epc:0xffffffc080200cac, tval:0x0000000000000000, desc=supervisor_ecall
riscv_cpu_do_interrupt: hart:0, async:0, cause:0000000000000009, epc:0xffffffc080200cac, tval:0x0000000000000000, desc=supervisor_ecall
riscv_cpu_do_interrupt: hart:0, async:0, cause:0000000000000009, epc:0xffffffc080200cac, tval:0x0000000000000000, desc=supervisor_ecall
riscv_cpu_do_interrupt: hart:0, async:0, cause:0000000000000009, epc:0xffffffc080200cac, tval:0x0000000000000000, desc=supervisor_ecall
riscv_cpu_do_interrupt: hart:0, async:0, cause:0000000000000009, epc:0xffffffc080200cac, tval:0x0000000000000000, desc=supervisor_ecall
riscv_cpu_do_interrupt: hart:0, async:0, cause:0000000000000009, epc:0xffffffc080200cac, tval:0x0000000000000000, desc=supervisor_ecall
riscv_cpu_do_interrupt: hart:0, async:0, cause:0000000000000009, epc:0xffffffc080200cac, tval:0x0000000000000000, desc=supervisor_ecall
riscv_cpu_do_interrupt: hart:0, async:0, cause:0000000000000009, epc:0xffffffc080200cac, tval:0x0000000000000000, desc=supervisor_ecall
riscv_cpu_do_interrupt: hart:0, async:0, cause:0000000000000009, epc:0xffffffc080200cac, tval:0x0000000000000000, desc=supervisor_ecall
riscv_cpu_do_interrupt: hart:0, async:0, cause:0000000000000009, epc:0xffffffc080200cac, tval:0x0000000000000000, desc=supervisor_ecall
riscv_cpu_do_interrupt: hart:0, async:0, cause:0000000000000009, epc:0xffffffc080200cac, tval:0x0000000000000000, desc=supervisor_ecall
riscv_cpu_do_interrupt: hart:0, async:0, cause:0000000000000009, epc:0xffffffc080200cac, tval:0x0000000000000000, desc=supervisor_ecall
riscv_cpu_do_interrupt: hart:0, async:0, cause:0000000000000009, epc:0xffffffc080200cac, tval:0x0000000000000000, desc=supervisor_ecall
riscv_cpu_do_interrupt: hart:0, async:0, cause:0000000000000009, epc:0xffffffc080200cac, tval:0x0000000000000000, desc=supervisor_ecall
riscv_cpu_do_interrupt: hart:0, async:0, cause:0000000000000009, epc:0xffffffc080200cac, tval:0x0000000000000000, desc=supervisor_ecall
riscv_cpu_do_interrupt: hart:0, async:0, cause:0000000000000009, epc:0xffffffc080200cac, tval:0x0000000000000000, desc=supervisor_ecall
----------------
IN: 
Priv: 1; Virt: 0
0xffffffc080206400:  0089b503          ld                      a0,8(s3)
0xffffffc080206404:  00a96863          bgtu                    a0,s2,16                # 0xffffffc080206414

riscv_cpu_do_interrupt: hart:0, async:0, cause:0000000000000009, epc:0xffffffc080200cac, tval:0x0000000000000000, desc=supervisor_ecall
riscv_cpu_do_interrupt: hart:0, async:0, cause:0000000000000009, epc:0xffffffc080200cac, tval:0x0000000000000000, desc=supervisor_ecall
riscv_cpu_do_interrupt: hart:0, async:0, cause:0000000000000009, epc:0xffffffc080200cac, tval:0x0000000000000000, desc=supervisor_ecall
riscv_cpu_do_interrupt: hart:0, async:0, cause:0000000000000009, epc:0xffffffc080200cac, tval:0x0000000000000000, desc=supervisor_ecall
riscv_cpu_do_interrupt: hart:0, async:0, cause:0000000000000009, epc:0xffffffc080200cac, tval:0x0000000000000000, desc=supervisor_ecall
----------------
IN: 
Priv: 1; Virt: 0
0xffffffc080200bbe:  e50d              bnez                    a0,42                   # 0xffffffc080200be8

----------------
IN: 
Priv: 1; Virt: 0
0xffffffc080200bc0:  60ae              ld                      ra,200(sp)
0xffffffc080200bc2:  640e              ld                      s0,192(sp)
0xffffffc080200bc4:  6169              addi                    sp,sp,208
0xffffffc080200bc6:  8082              ret                     

----------------
IN: 
Priv: 1; Virt: 0
0xffffffc08020554e:  60ea              ld                      ra,152(sp)
0xffffffc080205550:  644a              ld                      s0,144(sp)
0xffffffc080205552:  610d              addi                    sp,sp,160
0xffffffc080205554:  8082              ret                     

----------------
IN: 
Priv: 1; Virt: 0
0xffffffc080200ea0:  60e6              ld                      ra,88(sp)
0xffffffc080200ea2:  6446              ld                      s0,80(sp)
0xffffffc080200ea4:  64a6              ld                      s1,72(sp)
0xffffffc080200ea6:  6906              ld                      s2,64(sp)
0xffffffc080200ea8:  79e2              ld                      s3,56(sp)
0xffffffc080200eaa:  6125              addi                    sp,sp,96
0xffffffc080200eac:  8082              ret                     

----------------
IN: 
Priv: 1; Virt: 0
0xffffffc080201984:  0000b517          auipc                   a0,11                   # 0xffffffc08020c984
0xffffffc080201988:  a3c50593          addi                    a1,a0,-1476
0xffffffc08020198c:  8526              mv                      a0,s1
0xffffffc08020198e:  00001097          auipc                   ra,1                    # 0xffffffc08020298e
0xffffffc080201992:  de8080e7          jalr                    ra,ra,-536

----------------
IN: 
Priv: 1; Virt: 0
0xffffffc080202776:  00098617          auipc                   a2,152                  # 0xffffffc08029a776
0xffffffc08020277a:  aa260613          addi                    a2,a2,-1374
0xffffffc08020277e:  01060683          lb                      a3,16(a2)
0xffffffc080202782:  0230000f          fence                   r,rw
0xffffffc080202786:  ee81              bnez                    a3,24                   # 0xffffffc08020279e

----------------
IN: 
Priv: 1; Virt: 0
0xffffffc080202788:  e208              sd                      a0,0(a2)
0xffffffc08020278a:  e60c              sd                      a1,8(a2)
0xffffffc08020278c:  0310000f          fence                   rw,w
0xffffffc080202790:  4505              addi                    a0,zero,1
0xffffffc080202792:  00a60823          sb                      a0,16(a2)
0xffffffc080202796:  00000317          auipc                   t1,0                    # 0xffffffc080202796
0xffffffc08020279a:  42a30067          jalr                    zero,t1,1066

----------------
IN: 
Priv: 1; Virt: 0
0xffffffc080202bc0:  d6010113          addi                    sp,sp,-672
0xffffffc080202bc4:  28113c23          sd                      ra,664(sp)
0xffffffc080202bc8:  28813823          sd                      s0,656(sp)
0xffffffc080202bcc:  28913423          sd                      s1,648(sp)
0xffffffc080202bd0:  29213023          sd                      s2,640(sp)
0xffffffc080202bd4:  27313c23          sd                      s3,632(sp)
0xffffffc080202bd8:  27413823          sd                      s4,624(sp)
0xffffffc080202bdc:  27513423          sd                      s5,616(sp)
0xffffffc080202be0:  27613023          sd                      s6,608(sp)
0xffffffc080202be4:  25713c23          sd                      s7,600(sp)
0xffffffc080202be8:  25813823          sd                      s8,592(sp)
0xffffffc080202bec:  25913423          sd                      s9,584(sp)
0xffffffc080202bf0:  25a13023          sd                      s10,576(sp)
0xffffffc080202bf4:  23b13c23          sd                      s11,568(sp)
0xffffffc080202bf8:  1500              addi                    s0,sp,672
0xffffffc080202bfa:  d6043423          sd                      zero,-664(s0)
0xffffffc080202bfe:  4505              addi                    a0,zero,1
0xffffffc080202c00:  d6a43823          sd                      a0,-656(s0)
0xffffffc080202c04:  d6043c23          sd                      zero,-648(s0)
0xffffffc080202c08:  00097597          auipc                   a1,151                  # 0xffffffc080299c08
0xffffffc080202c0c:  67858493          addi                    s1,a1,1656
0xffffffc080202c10:  00848583          lb                      a1,8(s1)
0xffffffc080202c14:  0230000f          fence                   r,rw
0xffffffc080202c18:  40058363          beqz                    a1,1030                 # 0xffffffc08020301e

----------------
IN: 
Priv: 1; Virt: 0
0xffffffc080202c1c:  608c              ld                      a1,0(s1)
0xffffffc080202c1e:  df040513          addi                    a0,s0,-528
0xffffffc080202c22:  00002097          auipc                   ra,2                    # 0xffffffc080204c22
0xffffffc080202c26:  cf2080e7          jalr                    ra,ra,-782

----------------
IN: 
Priv: 1; Virt: 0
0xffffffc080202c2a:  df043503          ld                      a0,-528(s0)
0xffffffc080202c2e:  cd1d              beqz                    a0,62                   # 0xffffffc080202c6c

----------------
IN: 
Priv: 1; Virt: 0
0xffffffc080202c30:  e0446903          lwu                     s2,-508(s0)
0xffffffc080202c34:  00848503          lb                      a0,8(s1)
0xffffffc080202c38:  0230000f          fence                   r,rw
0xffffffc080202c3c:  4a050a63          beqz                    a0,1204                 # 0xffffffc0802030f0

----------------
IN: 
Priv: 1; Virt: 0
0xffffffc080202c40:  d7843a03          ld                      s4,-648(s0)
0xffffffc080202c44:  d6843503          ld                      a0,-664(s0)
0xffffffc080202c48:  0004b983          ld                      s3,0(s1)
0xffffffc080202c4c:  41450533          sub                     a0,a0,s4
0xffffffc080202c50:  3b256463          bgtu                    s2,a0,936               # 0xffffffc080202ff8

----------------
IN: 
Priv: 1; Virt: 0
0xffffffc080202ff8:  d6840513          addi                    a0,s0,-664
0xffffffc080202ffc:  85d2              mv                      a1,s4
0xffffffc080202ffe:  864a              mv                      a2,s2

----------------
IN: 
Priv: 1; Virt: 0
0xffffffc080203000:  fffff097          auipc                   ra,-1                   # 0xffffffc080202000
0xffffffc080203004:  0ea080e7          jalr                    ra,ra,234

----------------
IN: 
Priv: 1; Virt: 0
0xffffffc0802020ea:  715d              addi                    sp,sp,-80
0xffffffc0802020ec:  e486              sd                      ra,72(sp)
0xffffffc0802020ee:  e0a2              sd                      s0,64(sp)
0xffffffc0802020f0:  fc26              sd                      s1,56(sp)
0xffffffc0802020f2:  f84a              sd                      s2,48(sp)
0xffffffc0802020f4:  0880              addi                    s0,sp,80
0xffffffc0802020f6:  962e              add                     a2,a2,a1
0xffffffc0802020f8:  06b66863          bgtu                    a1,a2,112               # 0xffffffc080202168

----------------
IN: 
Priv: 1; Virt: 0
0xffffffc0802020fc:  892a              mv                      s2,a0
0xffffffc0802020fe:  6108              ld                      a0,0(a0)
0xffffffc080202100:  00151493          slli                    s1,a0,1
0xffffffc080202104:  02967363          bleu                    s1,a2,38                # 0xffffffc08020212a

----------------
IN: 
Priv: 1; Virt: 0
0xffffffc08020212a:  84b2              mv                      s1,a2
0xffffffc08020212c:  45a1              addi                    a1,zero,8
0xffffffc08020212e:  fec5e0e3          bgtu                    a2,a1,-32               # 0xffffffc08020210e

----------------
IN: 
Priv: 1; Virt: 0
0xffffffc08020210e:  fff4c593          not                     a1,s1
0xffffffc080202112:  91fd              srli                    a1,a1,63
0xffffffc080202114:  c505              beqz                    a0,40                   # 0xffffffc08020213c

----------------
IN: 
Priv: 1; Virt: 0
0xffffffc08020213c:  fc043823          sd                      zero,-48(s0)
0xffffffc080202140:  fb040513          addi                    a0,s0,-80
0xffffffc080202144:  fc840693          addi                    a3,s0,-56
0xffffffc080202148:  8626              mv                      a2,s1
0xffffffc08020214a:  00000097          auipc                   ra,0                    # 0xffffffc08020214a
0xffffffc08020214e:  e7e080e7          jalr                    ra,ra,-386

----------------
IN: 
Priv: 1; Virt: 0
0xffffffc080201fc8:  7179              addi                    sp,sp,-48
0xffffffc080201fca:  f406              sd                      ra,40(sp)
0xffffffc080201fcc:  f022              sd                      s0,32(sp)
0xffffffc080201fce:  ec26              sd                      s1,24(sp)
0xffffffc080201fd0:  e84a              sd                      s2,16(sp)
0xffffffc080201fd2:  e44e              sd                      s3,8(sp)
0xffffffc080201fd4:  1800              addi                    s0,sp,48
0xffffffc080201fd6:  8932              mv                      s2,a2
0xffffffc080201fd8:  84aa              mv                      s1,a0
0xffffffc080201fda:  c18d              beqz                    a1,34                   # 0xffffffc080201ffc

----------------
IN: 
Priv: 1; Virt: 0
0xffffffc080201fdc:  89ae              mv                      s3,a1
0xffffffc080201fde:  6688              ld                      a0,8(a3)
0xffffffc080201fe0:  c115              beqz                    a0,36                   # 0xffffffc080202004

----------------
IN: 
Priv: 1; Virt: 0
0xffffffc080202004:  04090063          beqz                    s2,64                   # 0xffffffc080202044

----------------
IN: 
Priv: 1; Virt: 0
0xffffffc080202008:  00098517          auipc                   a0,152                  # 0xffffffc08029a008
0xffffffc08020200c:  28954503          lbu                     a0,649(a0)
0xffffffc080202010:  a039              j                       14                      # 0xffffffc08020201e

----------------
IN: 
Priv: 1; Virt: 0
0xffffffc08020201e:  854a              mv                      a0,s2
0xffffffc080202020:  85ce              mv                      a1,s3
0xffffffc080202022:  fffff097          auipc                   ra,-1                   # 0xffffffc080201022
0xffffffc080202026:  6e4080e7          jalr                    ra,ra,1764

----------------
IN: 
Priv: 1; Virt: 0
0xffffffc080201706:  1141              addi                    sp,sp,-16
0xffffffc080201708:  e406              sd                      ra,8(sp)
0xffffffc08020170a:  e022              sd                      s0,0(sp)
0xffffffc08020170c:  0800              addi                    s0,sp,16
0xffffffc08020170e:  00099617          auipc                   a2,153                  # 0xffffffc08029a70e
0xffffffc080201712:  93260613          addi                    a2,a2,-1742
0xffffffc080201716:  86aa              mv                      a3,a0
0xffffffc080201718:  8532              mv                      a0,a2
0xffffffc08020171a:  8636              mv                      a2,a3
0xffffffc08020171c:  60a2              ld                      ra,8(sp)
0xffffffc08020171e:  6402              ld                      s0,0(sp)
0xffffffc080201720:  0141              addi                    sp,sp,16
0xffffffc080201722:  00000317          auipc                   t1,0                    # 0xffffffc080201722
0xffffffc080201726:  5f630067          jalr                    zero,t1,1526

----------------
IN: 
Priv: 1; Virt: 0
0xffffffc080201d18:  1101              addi                    sp,sp,-32
0xffffffc080201d1a:  ec06              sd                      ra,24(sp)
0xffffffc080201d1c:  e822              sd                      s0,16(sp)
0xffffffc080201d1e:  e426              sd                      s1,8(sp)
0xffffffc080201d20:  e04a              sd                      s2,0(sp)
0xffffffc080201d22:  1000              addi                    s0,sp,32
0xffffffc080201d24:  84aa              mv                      s1,a0
0xffffffc080201d26:  4505              addi                    a0,zero,1
0xffffffc080201d28:  00a4b92f          amoadd.d                s2,a0,(s1)
0xffffffc080201d2c:  6488              ld                      a0,8(s1)
0xffffffc080201d2e:  0230000f          fence                   r,rw
0xffffffc080201d32:  01250963          beq                     a0,s2,18                # 0xffffffc080201d44

----------------
IN: 
Priv: 1; Virt: 0
0xffffffc080201d44:  01048513          addi                    a0,s1,16
0xffffffc080201d48:  00000097          auipc                   ra,0                    # 0xffffffc080201d48
0xffffffc080201d4c:  c86080e7          jalr                    ra,ra,-890

----------------
IN: 
Priv: 1; Virt: 0
0xffffffc0802019ce:  1141              addi                    sp,sp,-16
0xffffffc0802019d0:  e406              sd                      ra,8(sp)
0xffffffc0802019d2:  e022              sd                      s0,0(sp)
0xffffffc0802019d4:  0800              addi                    s0,sp,16
0xffffffc0802019d6:  4709              addi                    a4,zero,2
0xffffffc0802019d8:  4685              addi                    a3,zero,1
0xffffffc0802019da:  0ce67663          bleu                    a4,a2,204               # 0xffffffc080201aa6

----------------
IN: 
Priv: 1; Virt: 0
0xffffffc080201aa6:  fff60693          addi                    a3,a2,-1
0xffffffc080201aaa:  0016d713          srli                    a4,a3,1
0xffffffc080201aae:  8ed9              or                      a3,a3,a4
0xffffffc080201ab0:  0026d713          srli                    a4,a3,2
0xffffffc080201ab4:  8ed9              or                      a3,a3,a4
0xffffffc080201ab6:  0046d713          srli                    a4,a3,4
0xffffffc080201aba:  8ed9              or                      a3,a3,a4
0xffffffc080201abc:  0086d713          srli                    a4,a3,8
0xffffffc080201ac0:  8ed9              or                      a3,a3,a4
0xffffffc080201ac2:  0106d713          srli                    a4,a3,16
0xffffffc080201ac6:  8ed9              or                      a3,a3,a4
0xffffffc080201ac8:  0206d713          srli                    a4,a3,32
0xffffffc080201acc:  8ed9              or                      a3,a3,a4
0xffffffc080201ace:  fff6c693          not                     a3,a3
0xffffffc080201ad2:  0016d813          srli                    a6,a3,1
0xffffffc080201ad6:  555557b7          lui                     a5,349525
0xffffffc080201ada:  5557871b          addiw                   a4,a5,1365
0xffffffc080201ade:  02071793          slli                    a5,a4,32
0xffffffc080201ae2:  973e              add                     a4,a4,a5
0xffffffc080201ae4:  00e87733          and                     a4,a6,a4
0xffffffc080201ae8:  8e99              sub                     a3,a3,a4
0xffffffc080201aea:  33333737          lui                     a4,209715
0xffffffc080201aee:  3337071b          addiw                   a4,a4,819
0xffffffc080201af2:  02071793          slli                    a5,a4,32
0xffffffc080201af6:  973e              add                     a4,a4,a5
0xffffffc080201af8:  00e6f7b3          and                     a5,a3,a4
0xffffffc080201afc:  8289              srli                    a3,a3,2
0xffffffc080201afe:  8ef9              and                     a3,a3,a4
0xffffffc080201b00:  96be              add                     a3,a3,a5
0xffffffc080201b02:  0046d713          srli                    a4,a3,4
0xffffffc080201b06:  96ba              add                     a3,a3,a4
0xffffffc080201b08:  0f0f1737          lui                     a4,61681
0xffffffc080201b0c:  f0f7071b          addiw                   a4,a4,-241
0xffffffc080201b10:  02071793          slli                    a5,a4,32
0xffffffc080201b14:  973e              add                     a4,a4,a5
0xffffffc080201b16:  8ef9              and                     a3,a3,a4
0xffffffc080201b18:  01010737          lui                     a4,4112
0xffffffc080201b1c:  1017071b          addiw                   a4,a4,257
0xffffffc080201b20:  02071793          slli                    a5,a4,32
0xffffffc080201b24:  973e              add                     a4,a4,a5
0xffffffc080201b26:  02e686b3          mul                     a3,a3,a4
0xffffffc080201b2a:  92e1              srli                    a3,a3,56
0xffffffc080201b2c:  577d              addi                    a4,zero,-1
0xffffffc080201b2e:  00d756b3          srl                     a3,a4,a3
0xffffffc080201b32:  0685              addi                    a3,a3,1
0xffffffc080201b34:  eab6e7e3          bgtu                    a1,a3,-338              # 0xffffffc0802019e2

----------------
IN: 
Priv: 1; Virt: 0
0xffffffc080201b38:  85b6              mv                      a1,a3
0xffffffc080201b3a:  46a1              addi                    a3,zero,8
0xffffffc080201b3c:  eab6f6e3          bleu                    a1,a3,-340              # 0xffffffc0802019e8

----------------
IN: 
Priv: 1; Virt: 0
0xffffffc080201b40:  b56d              j                       -342                    # 0xffffffc0802019ea

----------------
IN: 
Priv: 1; Virt: 0
0xffffffc0802019ea:  00016697          auipc                   a3,22                   # 0xffffffc0802179ea
0xffffffc0802019ee:  53e6b683          ld                      a3,1342(a3)
0xffffffc0802019f2:  40b00733          neg                     a4,a1
0xffffffc0802019f6:  8f6d              and                     a4,a4,a1
0xffffffc0802019f8:  02d706b3          mul                     a3,a4,a3
0xffffffc0802019fc:  92e9              srli                    a3,a3,58
0xffffffc0802019fe:  0000b717          auipc                   a4,11                   # 0xffffffc08020c9fe
0xffffffc080201a02:  b6a70713          addi                    a4,a4,-1174
0xffffffc080201a06:  96ba              add                     a3,a3,a4
0xffffffc080201a08:  0006c883          lbu                     a7,0(a3)
0xffffffc080201a0c:  02000693          addi                    a3,zero,32
0xffffffc080201a10:  82c6              mv                      t0,a7
0xffffffc080201a12:  0116e463          bgtu                    a7,a3,8                 # 0xffffffc080201a1a

----------------
IN: 
Priv: 1; Virt: 0
0xffffffc080201a16:  02000293          addi                    t0,zero,32
0xffffffc080201a1a:  00389813          slli                    a6,a7,3
0xffffffc080201a1e:  982a              add                     a6,a6,a0
0xffffffc080201a20:  ff080793          addi                    a5,a6,-16
0xffffffc080201a24:  8746              mv                      a4,a7
0xffffffc080201a26:  06e28a63          beq                     t0,a4,116               # 0xffffffc080201a9a

----------------
IN: 
Priv: 1; Virt: 0
0xffffffc080201a2a:  0107bf03          ld                      t5,16(a5)
0xffffffc080201a2e:  0705              addi                    a4,a4,1
0xffffffc080201a30:  07a1              addi                    a5,a5,8
0xffffffc080201a32:  fe0f0ae3          beqz                    t5,-12                  # 0xffffffc080201a26

----------------
IN: 
Priv: 1; Virt: 0
0xffffffc080201a26:  06e28a63          beq                     t0,a4,116               # 0xffffffc080201a9a

----------------
IN: 
Priv: 1; Virt: 0
0xffffffc080201a9a:  4681              mv                      a3,zero
0xffffffc080201a9c:  8536              mv                      a0,a3
0xffffffc080201a9e:  60a2              ld                      ra,8(sp)
0xffffffc080201aa0:  6402              ld                      s0,0(sp)
0xffffffc080201aa2:  0141              addi                    sp,sp,16
0xffffffc080201aa4:  8082              ret                     

----------------
IN: 
Priv: 1; Virt: 0
0xffffffc080201d50:  0905              addi                    s2,s2,1
0xffffffc080201d52:  0310000f          fence                   rw,w
0xffffffc080201d56:  0124b423          sd                      s2,8(s1)
0xffffffc080201d5a:  60e2              ld                      ra,24(sp)
0xffffffc080201d5c:  6442              ld                      s0,16(sp)
0xffffffc080201d5e:  64a2              ld                      s1,8(sp)
0xffffffc080201d60:  6902              ld                      s2,0(sp)
0xffffffc080201d62:  6105              addi                    sp,sp,32
0xffffffc080201d64:  8082              ret                     

----------------
IN: 
Priv: 1; Virt: 0
0xffffffc08020202a:  d571              beqz                    a0,-52                  # 0xffffffc080201ff6

----------------
IN: 
Priv: 1; Virt: 0
0xffffffc080201ff6:  0134b423          sd                      s3,8(s1)
0xffffffc080201ffa:  a019              j                       6                       # 0xffffffc080202000

----------------
IN: 
Priv: 1; Virt: 0
0xffffffc080202000:  4585              addi                    a1,zero,1
0xffffffc080202002:  a03d              j                       46                      # 0xffffffc080202030

----------------
IN: 
Priv: 1; Virt: 0
0xffffffc080202030:  0124b823          sd                      s2,16(s1)
0xffffffc080202034:  e08c              sd                      a1,0(s1)
0xffffffc080202036:  70a2              ld                      ra,40(sp)
0xffffffc080202038:  7402              ld                      s0,32(sp)
0xffffffc08020203a:  64e2              ld                      s1,24(sp)
0xffffffc08020203c:  6942              ld                      s2,16(sp)
0xffffffc08020203e:  69a2              ld                      s3,8(sp)
0xffffffc080202040:  6145              addi                    sp,sp,48
0xffffffc080202042:  8082              ret                     

----------------
IN: 
Priv: 1; Virt: 0
0xffffffc080202152:  fb043583          ld                      a1,-80(s0)
0xffffffc080202156:  fb843503          ld                      a0,-72(s0)
0xffffffc08020215a:  c999              beqz                    a1,22                   # 0xffffffc080202170

----------------
IN: 
Priv: 1; Virt: 0
0xffffffc08020215c:  55fd              addi                    a1,zero,-1
0xffffffc08020215e:  15fe              slli                    a1,a1,63
0xffffffc080202160:  0585              addi                    a1,a1,1
0xffffffc080202162:  00b50b63          beq                     a0,a1,22                # 0xffffffc080202178

----------------
IN: 
Priv: 1; Virt: 0
0xffffffc080202166:  ed19              bnez                    a0,30                   # 0xffffffc080202184

----------------
IN: 
Priv: 1; Virt: 0
0xffffffc080202184:  fc043583          ld                      a1,-64(s0)
0xffffffc080202188:  00003097          auipc                   ra,3                    # 0xffffffc080205188
0xffffffc08020218c:  43a080e7          jalr                    ra,ra,1082

----------------
IN: 
Priv: 1; Virt: 0
0xffffffc0802055c2:  1141              addi                    sp,sp,-16
0xffffffc0802055c4:  e406              sd                      ra,8(sp)
0xffffffc0802055c6:  862a              mv                      a2,a0
0xffffffc0802055c8:  852e              mv                      a0,a1
0xffffffc0802055ca:  85b2              mv                      a1,a2
0xffffffc0802055cc:  ffffc097          auipc                   ra,-4                   # 0xffffffc0802015cc
0xffffffc0802055d0:  3da080e7          jalr                    ra,ra,986

----------------
IN: 
Priv: 1; Virt: 0
0xffffffc0802019a6:  00004317          auipc                   t1,4                    # 0xffffffc0802059a6
0xffffffc0802019aa:  c2e30067          jalr                    zero,t1,-978

----------------
IN: 
Priv: 1; Virt: 0
0xffffffc0802055d4:  715d              addi                    sp,sp,-80
0xffffffc0802055d6:  e486              sd                      ra,72(sp)
0xffffffc0802055d8:  00095597          auipc                   a1,149                  # 0xffffffc08029a5d8
0xffffffc0802055dc:  cb85c583          lbu                     a1,-840(a1)
0xffffffc0802055e0:  e02a              sd                      a0,0(sp)
0xffffffc0802055e2:  850a              mv                      a0,sp
0xffffffc0802055e4:  ed85              bnez                    a1,56                   # 0xffffffc08020561c

----------------
IN: 
Priv: 1; Virt: 0
0xffffffc0802055e6:  fc2a              sd                      a0,56(sp)
0xffffffc0802055e8:  00003517          auipc                   a0,3                    # 0xffffffc0802085e8
0xffffffc0802055ec:  8d650513          addi                    a0,a0,-1834
0xffffffc0802055f0:  e0aa              sd                      a0,64(sp)
0xffffffc0802055f2:  00008517          auipc                   a0,8                    # 0xffffffc08020d5f2
0xffffffc0802055f6:  2fe50513          addi                    a0,a0,766
0xffffffc0802055fa:  e42a              sd                      a0,8(sp)
0xffffffc0802055fc:  4509              addi                    a0,zero,2
0xffffffc0802055fe:  e82a              sd                      a0,16(sp)
0xffffffc080205600:  f402              sd                      zero,40(sp)
0xffffffc080205602:  1828              addi                    a0,sp,56
0xffffffc080205604:  ec2a              sd                      a0,24(sp)
0xffffffc080205606:  4505              addi                    a0,zero,1
0xffffffc080205608:  f02a              sd                      a0,32(sp)
0xffffffc08020560a:  00008517          auipc                   a0,8                    # 0xffffffc08020d60a
0xffffffc08020560e:  30650613          addi                    a2,a0,774
0xffffffc080205612:  0028              addi                    a0,sp,8
0xffffffc080205614:  00000097          auipc                   ra,0                    # 0xffffffc080205614
0xffffffc080205618:  480080e7          jalr                    ra,ra,1152

----------------
IN: 
Priv: 1; Virt: 0
0xffffffc080205a94:  711d              addi                    sp,sp,-96
0xffffffc080205a96:  ec86              sd                      ra,88(sp)
0xffffffc080205a98:  7514              ld                      a3,40(a0)
0xffffffc080205a9a:  7118              ld                      a4,32(a0)
0xffffffc080205a9c:  f436              sd                      a3,40(sp)
0xffffffc080205a9e:  f03a              sd                      a4,32(sp)
0xffffffc080205aa0:  6d14              ld                      a3,24(a0)
0xffffffc080205aa2:  6918              ld                      a4,16(a0)
0xffffffc080205aa4:  651c              ld                      a5,8(a0)
0xffffffc080205aa6:  6108              ld                      a0,0(a0)
0xffffffc080205aa8:  ec36              sd                      a3,24(sp)
0xffffffc080205aaa:  e83a              sd                      a4,16(sp)
0xffffffc080205aac:  e43e              sd                      a5,8(sp)
0xffffffc080205aae:  e02a              sd                      a0,0(sp)
0xffffffc080205ab0:  00008517          auipc                   a0,8                    # 0xffffffc08020dab0
0xffffffc080205ab4:  fd050513          addi                    a0,a0,-48
0xffffffc080205ab8:  f82a              sd                      a0,48(sp)
0xffffffc080205aba:  00008517          auipc                   a0,8                    # 0xffffffc08020daba
0xffffffc080205abe:  06650513          addi                    a0,a0,102
0xffffffc080205ac2:  fc2a              sd                      a0,56(sp)
0xffffffc080205ac4:  850a              mv                      a0,sp
0xffffffc080205ac6:  e0aa              sd                      a0,64(sp)
0xffffffc080205ac8:  e4b2              sd                      a2,72(sp)
0xffffffc080205aca:  04010823          sb                      zero,80(sp)
0xffffffc080205ace:  04b108a3          sb                      a1,81(sp)
0xffffffc080205ad2:  1808              addi                    a0,sp,48
0xffffffc080205ad4:  ffffb097          auipc                   ra,-5                   # 0xffffffc080200ad4
0xffffffc080205ad8:  936080e7          jalr                    ra,ra,-1738

----------------
IN: 
Priv: 1; Virt: 0
0xffffffc08020040a:  7175              addi                    sp,sp,-144
0xffffffc08020040c:  e506              sd                      ra,136(sp)
0xffffffc08020040e:  e122              sd                      s0,128(sp)
0xffffffc080200410:  0900              addi                    s0,sp,144
0xffffffc080200412:  6d0c              ld                      a1,24(a0)
0xffffffc080200414:  0009a617          auipc                   a2,154                  # 0xffffffc08029a414
0xffffffc080200418:  e8c60613          addi                    a2,a2,-372
0xffffffc08020041c:  6210              ld                      a2,0(a2)
0xffffffc08020041e:  00263693          sltiu                   a3,a2,2
0xffffffc080200422:  167d              addi                    a2,a2,-1
0xffffffc080200424:  00c03633          snez                    a2,a2
0xffffffc080200428:  16fd              addi                    a3,a3,-1
0xffffffc08020042a:  8e55              or                      a2,a2,a3
0xffffffc08020042c:  c619              beqz                    a2,14                   # 0xffffffc08020043a

----------------
IN: 
Priv: 1; Virt: 0
0xffffffc08020042e:  0ff67613          andi                    a2,a2,255
0xffffffc080200432:  0ff00693          addi                    a3,zero,255
0xffffffc080200436:  0ad61363          bne                     a2,a3,166               # 0xffffffc0802004dc

----------------
IN: 
Priv: 1; Virt: 0
0xffffffc08020043a:  6190              ld                      a2,0(a1)
0xffffffc08020043c:  6594              ld                      a3,8(a1)
0xffffffc08020043e:  fcc43823          sd                      a2,-48(s0)
0xffffffc080200442:  fcd43c23          sd                      a3,-40(s0)
0xffffffc080200446:  498c              lw                      a1,16(a1)
0xffffffc080200448:  6908              ld                      a0,16(a0)
0xffffffc08020044a:  feb42223          sw                      a1,-28(s0)
0xffffffc08020044e:  e909              bnez                    a0,18                   # 0xffffffc080200460

----------------
IN: 
Priv: 1; Virt: 0
0xffffffc080200460:  fea43423          sd                      a0,-24(s0)
0xffffffc080200464:  fd040513          addi                    a0,s0,-48
0xffffffc080200468:  faa43023          sd                      a0,-96(s0)
0xffffffc08020046c:  00000517          auipc                   a0,0                    # 0xffffffc08020046c
0xffffffc080200470:  ce850513          addi                    a0,a0,-792
0xffffffc080200474:  faa43423          sd                      a0,-88(s0)
0xffffffc080200478:  fe440513          addi                    a0,s0,-28
0xffffffc08020047c:  faa43823          sd                      a0,-80(s0)
0xffffffc080200480:  00008517          auipc                   a0,8                    # 0xffffffc080208480
0xffffffc080200484:  a2e50513          addi                    a0,a0,-1490
0xffffffc080200488:  faa43c23          sd                      a0,-72(s0)
0xffffffc08020048c:  fe840513          addi                    a0,s0,-24
0xffffffc080200490:  fca43023          sd                      a0,-64(s0)
0xffffffc080200494:  00000517          auipc                   a0,0                    # 0xffffffc080200494
0xffffffc080200498:  ca850513          addi                    a0,a0,-856
0xffffffc08020049c:  fca43423          sd                      a0,-56(s0)
0xffffffc0802004a0:  00009517          auipc                   a0,9                    # 0xffffffc0802094a0
0xffffffc0802004a4:  c9050513          addi                    a0,a0,-880
0xffffffc0802004a8:  f6a43823          sd                      a0,-144(s0)
0xffffffc0802004ac:  450d              addi                    a0,zero,3
0xffffffc0802004ae:  f6a43c23          sd                      a0,-136(s0)
0xffffffc0802004b2:  f8043823          sd                      zero,-112(s0)
0xffffffc0802004b6:  fa040593          addi                    a1,s0,-96
0xffffffc0802004ba:  f8b43023          sd                      a1,-128(s0)
0xffffffc0802004be:  f8a43423          sd                      a0,-120(s0)
0xffffffc0802004c2:  00009517          auipc                   a0,9                    # 0xffffffc0802094c2
0xffffffc0802004c6:  c2650613          addi                    a2,a0,-986
0xffffffc0802004ca:  f7040513          addi                    a0,s0,-144
0xffffffc0802004ce:  4585              addi                    a1,zero,1
0xffffffc0802004d0:  46a1              addi                    a3,zero,8
0xffffffc0802004d2:  4701              mv                      a4,zero
0xffffffc0802004d4:  00005097          auipc                   ra,5                    # 0xffffffc0802054d4
0xffffffc0802004d8:  fb2080e7          jalr                    ra,ra,-78

----------------
IN: 
Priv: 1; Virt: 0
0xffffffc080200ade:  46fd              addi                    a3,zero,31
0xffffffc080200ae0:  a821              j                       24                      # 0xffffffc080200af8

riscv_cpu_do_interrupt: hart:0, async:0, cause:0000000000000009, epc:0xffffffc080200cac, tval:0x0000000000000000, desc=supervisor_ecall
riscv_cpu_do_interrupt: hart:0, async:0, cause:0000000000000009, epc:0xffffffc080200cac, tval:0x0000000000000000, desc=supervisor_ecall
riscv_cpu_do_interrupt: hart:0, async:0, cause:0000000000000009, epc:0xffffffc080200cac, tval:0x0000000000000000, desc=supervisor_ecall
riscv_cpu_do_interrupt: hart:0, async:0, cause:0000000000000009, epc:0xffffffc080200cac, tval:0x0000000000000000, desc=supervisor_ecall
riscv_cpu_do_interrupt: hart:0, async:0, cause:0000000000000009, epc:0xffffffc080200cac, tval:0x0000000000000000, desc=supervisor_ecall
riscv_cpu_do_interrupt: hart:0, async:0, cause:0000000000000009, epc:0xffffffc080200cac, tval:0x0000000000000000, desc=supervisor_ecall
riscv_cpu_do_interrupt: hart:0, async:0, cause:0000000000000009, epc:0xffffffc080200cac, tval:0x0000000000000000, desc=supervisor_ecall
riscv_cpu_do_interrupt: hart:0, async:0, cause:0000000000000009, epc:0xffffffc080200cac, tval:0x0000000000000000, desc=supervisor_ecall
riscv_cpu_do_interrupt: hart:0, async:0, cause:0000000000000009, epc:0xffffffc080200cac, tval:0x0000000000000000, desc=supervisor_ecall
riscv_cpu_do_interrupt: hart:0, async:0, cause:0000000000000009, epc:0xffffffc080200cac, tval:0x0000000000000000, desc=supervisor_ecall
riscv_cpu_do_interrupt: hart:0, async:0, cause:0000000000000009, epc:0xffffffc080200cac, tval:0x0000000000000000, desc=supervisor_ecall
riscv_cpu_do_interrupt: hart:0, async:0, cause:0000000000000009, epc:0xffffffc080200cac, tval:0x0000000000000000, desc=supervisor_ecall
riscv_cpu_do_interrupt: hart:0, async:0, cause:0000000000000009, epc:0xffffffc080200cac, tval:0x0000000000000000, desc=supervisor_ecall
riscv_cpu_do_interrupt: hart:0, async:0, cause:0000000000000009, epc:0xffffffc080200cac, tval:0x0000000000000000, desc=supervisor_ecall
riscv_cpu_do_interrupt: hart:0, async:0, cause:0000000000000009, epc:0xffffffc080200cac, tval:0x0000000000000000, desc=supervisor_ecall
riscv_cpu_do_interrupt: hart:0, async:0, cause:0000000000000009, epc:0xffffffc080200cac, tval:0x0000000000000000, desc=supervisor_ecall
riscv_cpu_do_interrupt: hart:0, async:0, cause:0000000000000009, epc:0xffffffc080200cac, tval:0x0000000000000000, desc=supervisor_ecall
riscv_cpu_do_interrupt: hart:0, async:0, cause:0000000000000009, epc:0xffffffc080200cac, tval:0x0000000000000000, desc=supervisor_ecall
riscv_cpu_do_interrupt: hart:0, async:0, cause:0000000000000009, epc:0xffffffc080200cac, tval:0x0000000000000000, desc=supervisor_ecall
riscv_cpu_do_interrupt: hart:0, async:0, cause:0000000000000009, epc:0xffffffc080200cac, tval:0x0000000000000000, desc=supervisor_ecall
riscv_cpu_do_interrupt: hart:0, async:0, cause:0000000000000009, epc:0xffffffc080200cac, tval:0x0000000000000000, desc=supervisor_ecall
riscv_cpu_do_interrupt: hart:0, async:0, cause:0000000000000009, epc:0xffffffc080200cac, tval:0x0000000000000000, desc=supervisor_ecall
riscv_cpu_do_interrupt: hart:0, async:0, cause:0000000000000009, epc:0xffffffc080200cac, tval:0x0000000000000000, desc=supervisor_ecall
riscv_cpu_do_interrupt: hart:0, async:0, cause:0000000000000009, epc:0xffffffc080200cac, tval:0x0000000000000000, desc=supervisor_ecall
riscv_cpu_do_interrupt: hart:0, async:0, cause:0000000000000009, epc:0xffffffc080200cac, tval:0x0000000000000000, desc=supervisor_ecall
riscv_cpu_do_interrupt: hart:0, async:0, cause:0000000000000009, epc:0xffffffc080200cac, tval:0x0000000000000000, desc=supervisor_ecall
riscv_cpu_do_interrupt: hart:0, async:0, cause:0000000000000009, epc:0xffffffc080200cac, tval:0x0000000000000000, desc=supervisor_ecall
riscv_cpu_do_interrupt: hart:0, async:0, cause:0000000000000009, epc:0xffffffc080200cac, tval:0x0000000000000000, desc=supervisor_ecall
riscv_cpu_do_interrupt: hart:0, async:0, cause:0000000000000009, epc:0xffffffc080200cac, tval:0x0000000000000000, desc=supervisor_ecall
riscv_cpu_do_interrupt: hart:0, async:0, cause:0000000000000009, epc:0xffffffc080200cac, tval:0x0000000000000000, desc=supervisor_ecall
riscv_cpu_do_interrupt: hart:0, async:0, cause:0000000000000009, epc:0xffffffc080200cac, tval:0x0000000000000000, desc=supervisor_ecall
----------------
IN: 
Priv: 1; Virt: 0
0xffffffc080207d42:  fff70693          addi                    a3,a4,-1
0xffffffc080207d46:  00110613          addi                    a2,sp,1
0xffffffc080207d4a:  9636              add                     a2,a2,a3
0xffffffc080207d4c:  0305051b          addiw                   a0,a0,48
0xffffffc080207d50:  00a60023          sb                      a0,0(a2)
0xffffffc080207d54:  a8e5              j                       248                     # 0xffffffc080207e4c

----------------
IN: 
Priv: 1; Virt: 0
0xffffffc080207e4c:  00110713          addi                    a4,sp,1
0xffffffc080207e50:  9736              add                     a4,a4,a3
0xffffffc080207e52:  02700793          addi                    a5,zero,39
0xffffffc080207e56:  8f95              sub                     a5,a5,a3
0xffffffc080207e58:  00006517          auipc                   a0,6                    # 0xffffffc08020de58
0xffffffc080207e5c:  c2850613          addi                    a2,a0,-984
0xffffffc080207e60:  8542              mv                      a0,a6
0xffffffc080207e62:  4681              mv                      a3,zero
0xffffffc080207e64:  ffffe097          auipc                   ra,-2                   # 0xffffffc080205e64
0xffffffc080207e68:  5e8080e7          jalr                    ra,ra,1512

riscv_cpu_do_interrupt: hart:0, async:0, cause:0000000000000009, epc:0xffffffc080200cac, tval:0x0000000000000000, desc=supervisor_ecall
riscv_cpu_do_interrupt: hart:0, async:0, cause:0000000000000009, epc:0xffffffc080200cac, tval:0x0000000000000000, desc=supervisor_ecall
riscv_cpu_do_interrupt: hart:0, async:0, cause:0000000000000009, epc:0xffffffc080200cac, tval:0x0000000000000000, desc=supervisor_ecall
riscv_cpu_do_interrupt: hart:0, async:0, cause:0000000000000009, epc:0xffffffc080200cac, tval:0x0000000000000000, desc=supervisor_ecall
riscv_cpu_do_interrupt: hart:0, async:0, cause:0000000000000009, epc:0xffffffc080200cac, tval:0x0000000000000000, desc=supervisor_ecall
riscv_cpu_do_interrupt: hart:0, async:0, cause:0000000000000009, epc:0xffffffc080200cac, tval:0x0000000000000000, desc=supervisor_ecall
riscv_cpu_do_interrupt: hart:0, async:0, cause:0000000000000009, epc:0xffffffc080200cac, tval:0x0000000000000000, desc=supervisor_ecall
riscv_cpu_do_interrupt: hart:0, async:0, cause:0000000000000009, epc:0xffffffc080200cac, tval:0x0000000000000000, desc=supervisor_ecall
riscv_cpu_do_interrupt: hart:0, async:0, cause:0000000000000009, epc:0xffffffc080200cac, tval:0x0000000000000000, desc=supervisor_ecall
riscv_cpu_do_interrupt: hart:0, async:0, cause:0000000000000009, epc:0xffffffc080200cac, tval:0x0000000000000000, desc=supervisor_ecall
riscv_cpu_do_interrupt: hart:0, async:0, cause:0000000000000009, epc:0xffffffc080200cac, tval:0x0000000000000000, desc=supervisor_ecall
riscv_cpu_do_interrupt: hart:0, async:0, cause:0000000000000009, epc:0xffffffc080200cac, tval:0x0000000000000000, desc=supervisor_ecall
riscv_cpu_do_interrupt: hart:0, async:0, cause:0000000000000009, epc:0xffffffc080200cac, tval:0x0000000000000000, desc=supervisor_ecall
riscv_cpu_do_interrupt: hart:0, async:0, cause:0000000000000009, epc:0xffffffc080200cac, tval:0x0000000000000000, desc=supervisor_ecall
riscv_cpu_do_interrupt: hart:0, async:0, cause:0000000000000009, epc:0xffffffc080200cac, tval:0x0000000000000000, desc=supervisor_ecall
riscv_cpu_do_interrupt: hart:0, async:0, cause:0000000000000009, epc:0xffffffc080200cac, tval:0x0000000000000000, desc=supervisor_ecall
riscv_cpu_do_interrupt: hart:0, async:0, cause:0000000000000009, epc:0xffffffc080200cac, tval:0x0000000000000000, desc=supervisor_ecall
riscv_cpu_do_interrupt: hart:0, async:0, cause:0000000000000009, epc:0xffffffc080200cac, tval:0x0000000000000000, desc=supervisor_ecall
riscv_cpu_do_interrupt: hart:0, async:0, cause:0000000000000009, epc:0xffffffc080200cac, tval:0x0000000000000000, desc=supervisor_ecall
riscv_cpu_do_interrupt: hart:0, async:0, cause:0000000000000009, epc:0xffffffc080200cac, tval:0x0000000000000000, desc=supervisor_ecall
riscv_cpu_do_interrupt: hart:0, async:0, cause:0000000000000009, epc:0xffffffc080200cac, tval:0x0000000000000000, desc=supervisor_ecall
riscv_cpu_do_interrupt: hart:0, async:0, cause:0000000000000009, epc:0xffffffc080200cac, tval:0x0000000000000000, desc=supervisor_ecall
riscv_cpu_do_interrupt: hart:0, async:0, cause:0000000000000009, epc:0xffffffc080200cac, tval:0x0000000000000000, desc=supervisor_ecall
riscv_cpu_do_interrupt: hart:0, async:0, cause:0000000000000009, epc:0xffffffc080200cac, tval:0x0000000000000000, desc=supervisor_ecall
riscv_cpu_do_interrupt: hart:0, async:0, cause:0000000000000009, epc:0xffffffc080200cac, tval:0x0000000000000000, desc=supervisor_ecall
riscv_cpu_do_interrupt: hart:0, async:0, cause:0000000000000009, epc:0xffffffc080200cac, tval:0x0000000000000000, desc=supervisor_ecall
riscv_cpu_do_interrupt: hart:0, async:0, cause:0000000000000009, epc:0xffffffc080200cac, tval:0x0000000000000000, desc=supervisor_ecall
riscv_cpu_do_interrupt: hart:0, async:0, cause:0000000000000009, epc:0xffffffc080200cac, tval:0x0000000000000000, desc=supervisor_ecall
riscv_cpu_do_interrupt: hart:0, async:0, cause:0000000000000009, epc:0xffffffc080200cac, tval:0x0000000000000000, desc=supervisor_ecall
riscv_cpu_do_interrupt: hart:0, async:0, cause:0000000000000009, epc:0xffffffc080200cac, tval:0x0000000000000000, desc=supervisor_ecall
riscv_cpu_do_interrupt: hart:0, async:0, cause:0000000000000009, epc:0xffffffc080200cac, tval:0x0000000000000000, desc=supervisor_ecall
riscv_cpu_do_interrupt: hart:0, async:0, cause:0000000000000009, epc:0xffffffc080200cac, tval:0x0000000000000000, desc=supervisor_ecall
riscv_cpu_do_interrupt: hart:0, async:0, cause:0000000000000009, epc:0xffffffc080200cac, tval:0x0000000000000000, desc=supervisor_ecall
riscv_cpu_do_interrupt: hart:0, async:0, cause:0000000000000009, epc:0xffffffc080200cac, tval:0x0000000000000000, desc=supervisor_ecall
riscv_cpu_do_interrupt: hart:0, async:0, cause:0000000000000009, epc:0xffffffc080200cac, tval:0x0000000000000000, desc=supervisor_ecall
riscv_cpu_do_interrupt: hart:0, async:0, cause:0000000000000009, epc:0xffffffc080200cac, tval:0x0000000000000000, desc=supervisor_ecall
riscv_cpu_do_interrupt: hart:0, async:0, cause:0000000000000009, epc:0xffffffc080200cac, tval:0x0000000000000000, desc=supervisor_ecall
riscv_cpu_do_interrupt: hart:0, async:0, cause:0000000000000009, epc:0xffffffc080200cac, tval:0x0000000000000000, desc=supervisor_ecall
riscv_cpu_do_interrupt: hart:0, async:0, cause:0000000000000009, epc:0xffffffc080200cac, tval:0x0000000000000000, desc=supervisor_ecall
riscv_cpu_do_interrupt: hart:0, async:0, cause:0000000000000009, epc:0xffffffc080200cac, tval:0x0000000000000000, desc=supervisor_ecall
riscv_cpu_do_interrupt: hart:0, async:0, cause:0000000000000009, epc:0xffffffc080200cac, tval:0x0000000000000000, desc=supervisor_ecall
riscv_cpu_do_interrupt: hart:0, async:0, cause:0000000000000009, epc:0xffffffc080200cac, tval:0x0000000000000000, desc=supervisor_ecall
riscv_cpu_do_interrupt: hart:0, async:0, cause:0000000000000009, epc:0xffffffc080200cac, tval:0x0000000000000000, desc=supervisor_ecall
riscv_cpu_do_interrupt: hart:0, async:0, cause:0000000000000009, epc:0xffffffc080200cac, tval:0x0000000000000000, desc=supervisor_ecall
riscv_cpu_do_interrupt: hart:0, async:0, cause:0000000000000009, epc:0xffffffc080200cac, tval:0x0000000000000000, desc=supervisor_ecall
riscv_cpu_do_interrupt: hart:0, async:0, cause:0000000000000009, epc:0xffffffc080200cac, tval:0x0000000000000000, desc=supervisor_ecall
riscv_cpu_do_interrupt: hart:0, async:0, cause:0000000000000009, epc:0xffffffc080200cac, tval:0x0000000000000000, desc=supervisor_ecall
riscv_cpu_do_interrupt: hart:0, async:0, cause:0000000000000009, epc:0xffffffc080200cac, tval:0x0000000000000000, desc=supervisor_ecall
riscv_cpu_do_interrupt: hart:0, async:0, cause:0000000000000009, epc:0xffffffc080200cac, tval:0x0000000000000000, desc=supervisor_ecall
riscv_cpu_do_interrupt: hart:0, async:0, cause:0000000000000009, epc:0xffffffc080200cac, tval:0x0000000000000000, desc=supervisor_ecall
----------------
IN: 
Priv: 1; Virt: 0
0xffffffc080207dec:  03051613          slli                    a2,a0,48
0xffffffc080207df0:  9249              srli                    a2,a2,50
0xffffffc080207df2:  6685              lui                     a3,1
0xffffffc080207df4:  47b6869b          addiw                   a3,a3,1147
0xffffffc080207df8:  02d60633          mul                     a2,a2,a3
0xffffffc080207dfc:  8245              srli                    a2,a2,17
0xffffffc080207dfe:  06400693          addi                    a3,zero,100
0xffffffc080207e02:  02d606b3          mul                     a3,a2,a3
0xffffffc080207e06:  9d15              subw                    a0,a0,a3
0xffffffc080207e08:  1546              slli                    a0,a0,49
0xffffffc080207e0a:  9141              srli                    a0,a0,48
0xffffffc080207e0c:  1779              addi                    a4,a4,-2
0xffffffc080207e0e:  957a              add                     a0,a0,t5
0xffffffc080207e10:  00154683          lbu                     a3,1(a0)
0xffffffc080207e14:  00054503          lbu                     a0,0(a0)
0xffffffc080207e18:  00110793          addi                    a5,sp,1
0xffffffc080207e1c:  97ba              add                     a5,a5,a4
0xffffffc080207e1e:  00d780a3          sb                      a3,1(a5)
0xffffffc080207e22:  00a78023          sb                      a0,0(a5)
0xffffffc080207e26:  8532              mv                      a0,a2
0xffffffc080207e28:  4629              addi                    a2,zero,10
0xffffffc080207e2a:  f0c56ce3          bgtu                    a2,a0,-232              # 0xffffffc080207d42

riscv_cpu_do_interrupt: hart:0, async:0, cause:0000000000000009, epc:0xffffffc080200cac, tval:0x0000000000000000, desc=supervisor_ecall
riscv_cpu_do_interrupt: hart:0, async:0, cause:0000000000000009, epc:0xffffffc080200cac, tval:0x0000000000000000, desc=supervisor_ecall
riscv_cpu_do_interrupt: hart:0, async:0, cause:0000000000000009, epc:0xffffffc080200cac, tval:0x0000000000000000, desc=supervisor_ecall
riscv_cpu_do_interrupt: hart:0, async:0, cause:0000000000000009, epc:0xffffffc080200cac, tval:0x0000000000000000, desc=supervisor_ecall
riscv_cpu_do_interrupt: hart:0, async:0, cause:0000000000000009, epc:0xffffffc080200cac, tval:0x0000000000000000, desc=supervisor_ecall
riscv_cpu_do_interrupt: hart:0, async:0, cause:0000000000000009, epc:0xffffffc080200cac, tval:0x0000000000000000, desc=supervisor_ecall
riscv_cpu_do_interrupt: hart:0, async:0, cause:0000000000000009, epc:0xffffffc080200cac, tval:0x0000000000000000, desc=supervisor_ecall
riscv_cpu_do_interrupt: hart:0, async:0, cause:0000000000000009, epc:0xffffffc080200cac, tval:0x0000000000000000, desc=supervisor_ecall
riscv_cpu_do_interrupt: hart:0, async:0, cause:0000000000000009, epc:0xffffffc080200cac, tval:0x0000000000000000, desc=supervisor_ecall
riscv_cpu_do_interrupt: hart:0, async:0, cause:0000000000000009, epc:0xffffffc080200cac, tval:0x0000000000000000, desc=supervisor_ecall
riscv_cpu_do_interrupt: hart:0, async:0, cause:0000000000000009, epc:0xffffffc080200cac, tval:0x0000000000000000, desc=supervisor_ecall
riscv_cpu_do_interrupt: hart:0, async:0, cause:0000000000000009, epc:0xffffffc080200cac, tval:0x0000000000000000, desc=supervisor_ecall
riscv_cpu_do_interrupt: hart:0, async:0, cause:0000000000000009, epc:0xffffffc080200cac, tval:0x0000000000000000, desc=supervisor_ecall
riscv_cpu_do_interrupt: hart:0, async:0, cause:0000000000000009, epc:0xffffffc080200cac, tval:0x0000000000000000, desc=supervisor_ecall
riscv_cpu_do_interrupt: hart:0, async:0, cause:0000000000000009, epc:0xffffffc080200cac, tval:0x0000000000000000, desc=supervisor_ecall
riscv_cpu_do_interrupt: hart:0, async:0, cause:0000000000000009, epc:0xffffffc080200cac, tval:0x0000000000000000, desc=supervisor_ecall
riscv_cpu_do_interrupt: hart:0, async:0, cause:0000000000000009, epc:0xffffffc080200cac, tval:0x0000000000000000, desc=supervisor_ecall
riscv_cpu_do_interrupt: hart:0, async:0, cause:0000000000000009, epc:0xffffffc080200cac, tval:0x0000000000000000, desc=supervisor_ecall
riscv_cpu_do_interrupt: hart:0, async:0, cause:0000000000000009, epc:0xffffffc080200cac, tval:0x0000000000000000, desc=supervisor_ecall
riscv_cpu_do_interrupt: hart:0, async:0, cause:0000000000000009, epc:0xffffffc080200cac, tval:0x0000000000000000, desc=supervisor_ecall
riscv_cpu_do_interrupt: hart:0, async:0, cause:0000000000000009, epc:0xffffffc080200cac, tval:0x0000000000000000, desc=supervisor_ecall
riscv_cpu_do_interrupt: hart:0, async:0, cause:0000000000000009, epc:0xffffffc080200cac, tval:0x0000000000000000, desc=supervisor_ecall
riscv_cpu_do_interrupt: hart:0, async:0, cause:0000000000000009, epc:0xffffffc080200cac, tval:0x0000000000000000, desc=supervisor_ecall
riscv_cpu_do_interrupt: hart:0, async:0, cause:0000000000000009, epc:0xffffffc080200cac, tval:0x0000000000000000, desc=supervisor_ecall
riscv_cpu_do_interrupt: hart:0, async:0, cause:0000000000000009, epc:0xffffffc080200cac, tval:0x0000000000000000, desc=supervisor_ecall
----------------
IN: 
Priv: 1; Virt: 0
0xffffffc080207ebe:  6108              ld                      a0,0(a0)
0xffffffc080207ec0:  862e              mv                      a2,a1
0xffffffc080207ec2:  4585              addi                    a1,zero,1
0xffffffc080207ec4:  00000317          auipc                   t1,0                    # 0xffffffc080207ec4
0xffffffc080207ec8:  e4e30067          jalr                    zero,t1,-434

riscv_cpu_do_interrupt: hart:0, async:0, cause:0000000000000009, epc:0xffffffc080200cac, tval:0x0000000000000000, desc=supervisor_ecall
riscv_cpu_do_interrupt: hart:0, async:0, cause:0000000000000009, epc:0xffffffc080200cac, tval:0x0000000000000000, desc=supervisor_ecall
riscv_cpu_do_interrupt: hart:0, async:0, cause:0000000000000009, epc:0xffffffc080200cac, tval:0x0000000000000000, desc=supervisor_ecall
riscv_cpu_do_interrupt: hart:0, async:0, cause:0000000000000009, epc:0xffffffc080200cac, tval:0x0000000000000000, desc=supervisor_ecall
riscv_cpu_do_interrupt: hart:0, async:0, cause:0000000000000009, epc:0xffffffc080200cac, tval:0x0000000000000000, desc=supervisor_ecall
riscv_cpu_do_interrupt: hart:0, async:0, cause:0000000000000009, epc:0xffffffc080200cac, tval:0x0000000000000000, desc=supervisor_ecall
riscv_cpu_do_interrupt: hart:0, async:0, cause:0000000000000009, epc:0xffffffc080200cac, tval:0x0000000000000000, desc=supervisor_ecall
riscv_cpu_do_interrupt: hart:0, async:0, cause:0000000000000009, epc:0xffffffc080200cac, tval:0x0000000000000000, desc=supervisor_ecall
riscv_cpu_do_interrupt: hart:0, async:0, cause:0000000000000009, epc:0xffffffc080200cac, tval:0x0000000000000000, desc=supervisor_ecall
riscv_cpu_do_interrupt: hart:0, async:0, cause:0000000000000009, epc:0xffffffc080200cac, tval:0x0000000000000000, desc=supervisor_ecall
riscv_cpu_do_interrupt: hart:0, async:0, cause:0000000000000009, epc:0xffffffc080200cac, tval:0x0000000000000000, desc=supervisor_ecall
riscv_cpu_do_interrupt: hart:0, async:0, cause:0000000000000009, epc:0xffffffc080200cac, tval:0x0000000000000000, desc=supervisor_ecall
riscv_cpu_do_interrupt: hart:0, async:0, cause:0000000000000009, epc:0xffffffc080200cac, tval:0x0000000000000000, desc=supervisor_ecall
riscv_cpu_do_interrupt: hart:0, async:0, cause:0000000000000009, epc:0xffffffc080200cac, tval:0x0000000000000000, desc=supervisor_ecall
riscv_cpu_do_interrupt: hart:0, async:0, cause:0000000000000009, epc:0xffffffc080200cac, tval:0x0000000000000000, desc=supervisor_ecall
riscv_cpu_do_interrupt: hart:0, async:0, cause:0000000000000009, epc:0xffffffc080200cac, tval:0x0000000000000000, desc=supervisor_ecall
riscv_cpu_do_interrupt: hart:0, async:0, cause:0000000000000009, epc:0xffffffc080200cac, tval:0x0000000000000000, desc=supervisor_ecall
----------------
IN: 
Priv: 1; Virt: 0
0xffffffc080206408:  a02d              j                       42                      # 0xffffffc080206432

riscv_cpu_do_interrupt: hart:0, async:0, cause:0000000000000009, epc:0xffffffc080200cac, tval:0x0000000000000000, desc=supervisor_ecall
riscv_cpu_do_interrupt: hart:0, async:0, cause:0000000000000009, epc:0xffffffc080200cac, tval:0x0000000000000000, desc=supervisor_ecall
riscv_cpu_do_interrupt: hart:0, async:0, cause:0000000000000009, epc:0xffffffc080200cac, tval:0x0000000000000000, desc=supervisor_ecall
riscv_cpu_do_interrupt: hart:0, async:0, cause:0000000000000009, epc:0xffffffc080200cac, tval:0x0000000000000000, desc=supervisor_ecall
riscv_cpu_do_interrupt: hart:0, async:0, cause:0000000000000009, epc:0xffffffc080200cac, tval:0x0000000000000000, desc=supervisor_ecall
----------------
IN: 
Priv: 1; Virt: 0
0xffffffc0802004dc:  53525537          lui                     a0,341285
0xffffffc0802004e0:  3545089b          addiw                   a7,a0,852
0xffffffc0802004e4:  4801              mv                      a6,zero
0xffffffc0802004e6:  4501              mv                      a0,zero
0xffffffc0802004e8:  4581              mv                      a1,zero
0xffffffc0802004ea:  00000073          ecall                   

riscv_cpu_do_interrupt: hart:0, async:0, cause:0000000000000009, epc:0xffffffc0802004ea, tval:0x0000000000000000, desc=supervisor_ecall
----------------
IN: 
Priv: 3; Virt: 0
0x800007c4:  0495051b          addiw                   a0,a0,73
0x800007c8:  12ad0a63          beq                     s10,a0,308              # 0x800008fc

----------------
IN: 
Priv: 3; Virt: 0
0x800007cc:  53525537          lui                     a0,341285
0x800007d0:  3545051b          addiw                   a0,a0,852
0x800007d4:  2ead0363          beq                     s10,a0,742              # 0x80000aba

----------------
IN: 
Priv: 3; Virt: 0
0x80000aba:  5579              addi                    a0,zero,-2
0x80000abc:  0e0c9063          bnez                    s9,224                  # 0x80000b9c

----------------
IN: 
Priv: 3; Virt: 0
0x80000ac0:  6522              ld                      a0,8(sp)
0x80000ac2:  00ade533          or                      a0,s11,a0
0x80000ac6:  02055593          srli                    a1,a0,32
0x80000aca:  5575              addi                    a0,zero,-3
0x80000acc:  e9e1              bnez                    a1,208                  # 0x80000b9c

----------------
IN: 
Priv: 3; Virt: 0
0x80000ace:  00027517          auipc                   a0,39                   # 0x80027ace
0x80000ad2:  4d250513          addi                    a0,a0,1234
0x80000ad6:  85ee              mv                      a1,s11
0x80000ad8:  6622              ld                      a2,8(sp)
0x80000ada:  00002097          auipc                   ra,2                    # 0x80002ada
0x80000ade:  0e6080e7          jalr                    ra,ra,230

----------------
IN: 
Priv: 3; Virt: 0
0x80002bc0:  7179              addi                    sp,sp,-48
0x80002bc2:  f406              sd                      ra,40(sp)
0x80002bc4:  f022              sd                      s0,32(sp)
0x80002bc6:  ec26              sd                      s1,24(sp)
0x80002bc8:  e84a              sd                      s2,16(sp)
0x80002bca:  e44e              sd                      s3,8(sp)
0x80002bcc:  8932              mv                      s2,a2
0x80002bce:  89ae              mv                      s3,a1
0x80002bd0:  00025417          auipc                   s0,37                   # 0x80027bd0
0x80002bd4:  3d040413          addi                    s0,s0,976
0x80002bd8:  4485              addi                    s1,zero,1
0x80002bda:  a019              j                       6                       # 0x80002be0

----------------
IN: 
Priv: 3; Virt: 0
0x80002be0:  00840503          lb                      a0,8(s0)
0x80002be4:  0230000f          fence                   r,rw
0x80002be8:  00001097          auipc                   ra,1                    # 0x80003be8
0x80002bec:  1ac080e7          jalr                    ra,ra,428

----------------
IN: 
Priv: 3; Virt: 0
0x80002bf0:  0ff57513          andi                    a0,a0,255
0x80002bf4:  fea054e3          blez                    a0,-24                  # 0x80002bdc

----------------
IN: 
Priv: 3; Virt: 0
0x80002bf8:  00951563          bne                     a0,s1,10                # 0x80002c02

----------------
IN: 
Priv: 3; Virt: 0
0x80002c02:  4589              addi                    a1,zero,2
0x80002c04:  02b51263          bne                     a0,a1,36                # 0x80002c28

----------------
IN: 
Priv: 3; Virt: 0
0x80002c08:  0009851b          sext.w                  a0,s3
0x80002c0c:  fff50613          addi                    a2,a0,-1
0x80002c10:  02b66b63          bgtu                    a1,a2,54                # 0x80002c46

----------------
IN: 
Priv: 3; Virt: 0
0x80002c14:  c539              beqz                    a0,78                   # 0x80002c62

----------------
IN: 
Priv: 3; Virt: 0
0x80002c62:  6008              ld                      a0,0(s0)
0x80002c64:  0009059b          sext.w                  a1,s2
0x80002c68:  c981              beqz                    a1,16                   # 0x80002c78

----------------
IN: 
Priv: 3; Virt: 0
0x80002c78:  6595              lui                     a1,5
0x80002c7a:  5555859b          addiw                   a1,a1,1365
0x80002c7e:  a039              j                       14                      # 0x80002c8c

----------------
IN: 
Priv: 3; Virt: 0
0x80002c8c:  c10c              sw                      a1,0(a0)
0x80002c8e:  00004517          auipc                   a0,4                    # 0x80006c8e
0x80002c92:  0d250513          addi                    a0,a0,210
0x80002c96:  00004617          auipc                   a2,4                    # 0x80006c96
0x80002c9a:  15260613          addi                    a2,a2,338
0x80002c9e:  02800593          addi                    a1,zero,40
0x80002ca2:  00001097          auipc                   ra,1                    # 0x80003ca2
0x80002ca6:  634080e7          jalr                    ra,ra,1588

----------------
IN: 
Priv: 3; Virt: 0
0x80002c8c:  c10c              sw                      a1,0(a0)

----------------
IN: 
Priv: 3; Virt: 0
0x80002c8e:  00004517          auipc                   a0,4                    # 0x80006c8e
0x80002c92:  0d250513          addi                    a0,a0,210
0x80002c96:  00004617          auipc                   a2,4                    # 0x80006c96
0x80002c9a:  15260613          addi                    a2,a2,338
0x80002c9e:  02800593          addi                    a1,zero,40
0x80002ca2:  00001097          auipc                   ra,1                    # 0x80003ca2
0x80002ca6:  634080e7          jalr                    ra,ra,1588

